

Microchip MPLAB XC8 Assembler V2.41 build 20230208172133 
                                                                                               Fri Mar 29 20:08:21 2024

Microchip MPLAB XC8 C Compiler v2.41 (Free license) build 20230208172133 Og1 
     1                           	processor	18F57Q43
     2                           	fnconf	rparam,??,?,0
     3                           	pagewidth 120
     4                           	opt	flic
     5                           	psect	idataCOMRAM,global,class=CODE,delta=1,noexec
     6                           	psect	smallconst,global,reloc=2,class=SMALLCONST,delta=1,noexec
     7                           	psect	nvCOMRAM,global,class=COMRAM,space=1,delta=1,lowdata,noexec
     8                           	psect	nvBANK5,global,class=BANK5,space=1,delta=1,lowdata,noexec
     9                           	psect	cinit,global,reloc=2,class=CODE,delta=1
    10                           	psect	bssCOMRAM,global,class=COMRAM,space=1,delta=1,lowdata,noexec
    11                           	psect	dataCOMRAM,global,class=COMRAM,space=1,delta=1,lowdata,noexec
    12                           	psect	bssBANK5,global,class=BANK5,space=1,delta=1,lowdata,noexec
    13                           	psect	cstackCOMRAM,global,class=COMRAM,space=1,delta=1,lowdata,noexec
    14                           	psect	text0,global,reloc=2,class=CODE,delta=1
    15                           	psect	text1,global,reloc=2,class=CODE,delta=1,group=3
    16                           	psect	text2,global,reloc=2,class=CODE,delta=1,group=1
    17                           	psect	text3,global,reloc=2,class=CODE,delta=1,group=1
    18                           	psect	text4,global,reloc=2,class=CODE,delta=1,group=3
    19                           	psect	text5,global,reloc=2,class=CODE,delta=1
    20                           	psect	text6,global,reloc=2,class=CODE,delta=1
    21                           	psect	text7,global,reloc=2,class=CODE,delta=1
    22                           	psect	text8,global,reloc=2,class=CODE,delta=1
    23                           	psect	text9,global,reloc=2,class=CODE,delta=1
    24                           	psect	text10,global,reloc=2,class=CODE,delta=1
    25                           	psect	text11,global,reloc=2,class=CODE,delta=1
    26                           	psect	text12,global,reloc=2,class=CODE,delta=1
    27                           	psect	text13,global,reloc=2,class=CODE,delta=1
    28                           	psect	text14,global,reloc=2,class=CODE,delta=1
    29                           	psect	text15,global,reloc=2,class=CODE,delta=1
    30                           	psect	text16,global,reloc=2,class=CODE,delta=1
    31                           	psect	text17,global,reloc=2,class=CODE,delta=1
    32                           	psect	text18,global,reloc=2,class=CODE,delta=1
    33                           	psect	text19,global,reloc=2,class=CODE,delta=1
    34                           	psect	text20,global,reloc=2,class=CODE,delta=1
    35                           	psect	text21,global,reloc=2,class=CODE,delta=1
    36                           	psect	text22,global,reloc=2,class=CODE,delta=1
    37                           	psect	text23,global,reloc=2,class=CODE,delta=1
    38                           	psect	text24,global,reloc=2,class=CODE,delta=1
    39                           	psect	text25,global,reloc=2,class=CODE,delta=1,inline
    40                           	psect	text26,global,reloc=2,class=CODE,delta=1
    41                           	psect	text27,global,reloc=2,class=CODE,delta=1
    42                           	psect	text28,global,reloc=2,class=CODE,delta=1
    43                           	psect	text29,global,reloc=2,class=CODE,delta=1,inline
    44                           	psect	text30,global,reloc=2,class=CODE,delta=1,inline
    45                           	psect	text31,global,reloc=2,class=CODE,delta=1
    46                           	psect	text32,global,reloc=2,class=CODE,delta=1
    47                           	psect	text33,global,reloc=2,class=CODE,delta=1
    48                           	psect	text34,global,reloc=2,class=CODE,delta=1
    49                           	psect	text35,global,reloc=2,class=CODE,delta=1
    50                           	psect	text36,global,reloc=2,class=CODE,delta=1
    51                           	psect	text37,global,reloc=2,class=CODE,delta=1
    52                           	psect	text38,global,reloc=2,class=CODE,delta=1
    53                           	psect	text39,global,reloc=2,class=CODE,delta=1
    54                           	psect	text40,global,reloc=2,class=CODE,delta=1
    55                           	psect	text41,global,reloc=2,class=CODE,delta=1
    56                           	psect	text42,global,reloc=2,class=CODE,delta=1
    57                           	psect	text43,global,reloc=2,class=CODE,delta=1
    58                           	psect	text44,global,reloc=2,class=CODE,delta=1
    59                           	psect	text45,global,reloc=2,class=CODE,delta=1
    60                           	psect	text46,global,reloc=2,class=CODE,delta=1
    61                           	psect	text47,global,reloc=2,class=CODE,delta=1
    62                           	psect	text48,global,reloc=2,class=CODE,delta=1
    63                           	psect	text49,global,reloc=2,class=CODE,delta=1
    64                           	psect	text50,global,reloc=2,class=CODE,delta=1,inline
    65                           	psect	text51,global,reloc=2,class=CODE,delta=1,inline
    66                           	psect	text52,global,reloc=2,class=CODE,delta=1,inline
    67                           	psect	text53,global,reloc=2,class=CODE,delta=1,inline
    68                           	psect	text54,global,reloc=2,class=CODE,delta=1,inline
    69                           	psect	text55,global,reloc=2,class=CODE,delta=1,inline
    70                           	psect	text56,global,reloc=2,class=CODE,delta=1,inline
    71                           	psect	text57,global,reloc=2,class=CODE,delta=1,inline
    72                           	psect	text58,global,reloc=2,class=CODE,delta=1,inline
    73                           	psect	text59,global,reloc=2,class=CODE,delta=1,inline
    74                           	psect	text60,global,reloc=2,class=CODE,delta=1,inline
    75                           	psect	text61,global,reloc=2,class=CODE,delta=1,inline
    76                           	psect	text62,global,reloc=2,class=CODE,delta=1,inline
    77                           	psect	text63,global,reloc=2,class=CODE,delta=1
    78                           	psect	text64,global,reloc=2,class=CODE,delta=1
    79                           	psect	text65,global,reloc=2,class=CODE,delta=1
    80                           	psect	text66,global,reloc=2,class=CODE,delta=1
    81                           	psect	text67,global,reloc=2,class=CODE,delta=1
    82                           	psect	text68,global,reloc=2,class=CODE,delta=1
    83                           	psect	text69,global,reloc=2,class=CODE,delta=1
    84                           	psect	text70,global,reloc=2,class=CODE,delta=1
    85                           	psect	text71,global,reloc=2,class=CODE,delta=1
    86                           	psect	text72,global,reloc=2,class=CODE,delta=1
    87                           	psect	text73,global,reloc=2,class=CODE,delta=1,inline
    88                           	psect	text74,global,reloc=2,class=CODE,delta=1,inline
    89                           	psect	text75,global,reloc=2,class=CODE,delta=1,inline
    90                           	psect	text76,global,reloc=2,class=CODE,delta=1,inline
    91                           	psect	text77,global,reloc=2,class=CODE,delta=1,inline
    92                           	psect	text78,global,reloc=2,class=CODE,delta=1,inline
    93                           	psect	text79,global,reloc=2,class=CODE,delta=1,inline
    94                           	psect	text80,global,reloc=2,class=CODE,delta=1
    95                           	psect	text81,global,reloc=2,class=CODE,delta=1,inline
    96                           	psect	text82,global,reloc=2,class=CODE,delta=1,inline
    97                           	psect	text83,global,reloc=2,class=CODE,delta=1,inline
    98                           	psect	intsave_regs,global,class=BIGRAM,space=1,delta=1,noexec
    99                           	psect	text84,global,reloc=2,class=CODE,delta=1,inline
   100                           	psect	rparam,global,class=COMRAM,space=1,delta=1,noexec
   101                           	psect	config,global,abs,ovrld,class=CONFIG,space=4,delta=1,noexec
   102   000000                     
   103                           ; Generated 23/02/2024 GMT
   104                           ; 
   105                           ; Copyright © 2024, Microchip Technology Inc. and its subsidiaries ("Microchip")
   106                           ; All rights reserved.
   107                           ; 
   108                           ; This software is developed by Microchip Technology Inc. and its subsidiaries ("Microch
      +                          ip").
   109                           ; 
   110                           ; Redistribution and use in source and binary forms, with or without modification, are
   111                           ; permitted provided that the following conditions are met:
   112                           ; 
   113                           ;     1. Redistributions of source code must retain the above copyright notice, this lis
      +                          t of
   114                           ;        conditions and the following disclaimer.
   115                           ; 
   116                           ;     2. Redistributions in binary form must reproduce the above copyright notice, this 
      +                          list
   117                           ;        of conditions and the following disclaimer in the documentation and/or other
   118                           ;        materials provided with the distribution. Publication is not required when
   119                           ;        this file is used in an embedded application.
   120                           ; 
   121                           ;     3. Microchip's name may not be used to endorse or promote products derived from th
      +                          is
   122                           ;        software without specific prior written permission.
   123                           ; 
   124                           ; THIS SOFTWARE IS PROVIDED BY MICROCHIP "AS IS" AND ANY EXPRESS OR IMPLIED WARRANTIES,
   125                           ; INCLUDING, BUT NOT LIMITED TO, THE IMPLIED WARRANTIES OF MERCHANTABILITY AND FITNESS F
      +                          OR
   126                           ; PURPOSE ARE DISCLAIMED.  IN NO EVENT SHALL MICROCHIP BE LIABLE FOR ANY DIRECT, INDIREC
      +                          T,
   127                           ; INCIDENTAL, SPECIAL, EXEMPLARY, OR CONSEQUENTIAL DAMAGES (INCLUDING BUT NOT LIMITED TO
   128                           ; PROCUREMENT OF SUBSTITUTE GOODS OR SERVICES; LOSS OF USE, DATA OR PROFITS; OR BUSINESS
   129                           ; INTERRUPTION) HOWSOEVER CAUSED AND ON ANY THEORY OF LIABILITY, WHETHER IN CONTRACT, ST
      +                          RICT
   130                           ; LIABILITY, OR TORT (INCLUDING NEGLIGENCE OR OTHERWISE) ARISING IN ANY WAY OUT OF THE U
      +                          SE OF
   131                           ; THIS SOFTWARE, EVEN IF ADVISED OF THE POSSIBILITY OF SUCH DAMAGE.
   132                           ; 
   133                           ; 
   134                           ; Code-generator required, PIC18F57Q43 Definitions
   135                           ; 
   136                           ; SFR Addresses
   137   000000                     
   138 ;; Function _UART1_DefaultFramingErrorHandler is unused but had its address taken
   139   000000                     
   140 ;; Function _UART1_DefaultOverrunErrorHandler is unused but had its address taken
   141   000000                     
   142 ;; Function _UART1_DefaultErrorHandler is unused but had its address taken
   143   000000                     
   144                           	psect	idataCOMRAM
   145   0036F8                     __pidataCOMRAM:
   146                           	callstack 0
   147                           
   148                           ;initializer for _DIR_PCF
   149   0036F8  27                 	db	39
   150                           
   151                           ;initializer for _LED_STATUS
   152   0036F9  08                 	db	8
   153                           
   154                           	psect	smallconst
   155   002600                     __psmallconst:
   156                           	callstack 0
   157   002600  00                 	db	0
   158   002601                     _i2c1_fsmStateTable:
   159                           	callstack 0
   160   002601  60                 	db	low _I2C1_DO_IDLE
   161   002602  36                 	db	high _I2C1_DO_IDLE
   162   002603  00                 	db	low (_I2C1_DO_IDLE shr (0+16))
   163   002604  72                 	db	low _I2C1_DO_SEND_ADR_READ
   164   002605  33                 	db	high _I2C1_DO_SEND_ADR_READ
   165   002606  00                 	db	low (_I2C1_DO_SEND_ADR_READ shr (0+16))
   166   002607  BC                 	db	low _I2C1_DO_SEND_ADR_WRITE
   167   002608  35                 	db	high _I2C1_DO_SEND_ADR_WRITE
   168   002609  00                 	db	low (_I2C1_DO_SEND_ADR_WRITE shr (0+16))
   169   00260A  6A                 	db	low _I2C1_DO_TX
   170   00260B  26                 	db	high _I2C1_DO_TX
   171   00260C  00                 	db	low (_I2C1_DO_TX shr (0+16))
   172   00260D  14                 	db	low _I2C1_DO_RX
   173   00260E  2B                 	db	high _I2C1_DO_RX
   174   00260F  00                 	db	low (_I2C1_DO_RX shr (0+16))
   175   002610  34                 	db	low _I2C1_DO_TX_EMPTY
   176   002611  2D                 	db	high _I2C1_DO_TX_EMPTY
   177   002612  00                 	db	low (_I2C1_DO_TX_EMPTY shr (0+16))
   178   002613  76                 	db	low _I2C1_DO_RX_EMPTY
   179   002614  2A                 	db	high _I2C1_DO_RX_EMPTY
   180   002615  00                 	db	low (_I2C1_DO_RX_EMPTY shr (0+16))
   181   002616  34                 	db	low _I2C1_DO_SEND_RESTART_READ
   182   002617  36                 	db	high _I2C1_DO_SEND_RESTART_READ
   183   002618  00                 	db	low (_I2C1_DO_SEND_RESTART_READ shr (0+16))
   184   002619  EC                 	db	low _I2C1_DO_SEND_RESTART_WRITE
   185   00261A  36                 	db	high _I2C1_DO_SEND_RESTART_WRITE
   186   00261B  00                 	db	low (_I2C1_DO_SEND_RESTART_WRITE shr (0+16))
   187   00261C  E8                 	db	low _I2C1_DO_SEND_RESTART
   188   00261D  36                 	db	high _I2C1_DO_SEND_RESTART
   189   00261E  00                 	db	low (_I2C1_DO_SEND_RESTART shr (0+16))
   190   00261F  C6                 	db	low _I2C1_DO_SEND_STOP
   191   002620  33                 	db	high _I2C1_DO_SEND_STOP
   192   002621  00                 	db	low (_I2C1_DO_SEND_STOP shr (0+16))
   193   002622  84                 	db	low _I2C1_DO_RX_ACK
   194   002623  36                 	db	high _I2C1_DO_RX_ACK
   195   002624  00                 	db	low (_I2C1_DO_RX_ACK shr (0+16))
   196   002625  8C                 	db	low _I2C1_DO_TX_ACK
   197   002626  36                 	db	high _I2C1_DO_TX_ACK
   198   002627  00                 	db	low (_I2C1_DO_TX_ACK shr (0+16))
   199   002628  26                 	db	low _I2C1_DO_RX_NACK_STOP
   200   002629  36                 	db	high _I2C1_DO_RX_NACK_STOP
   201   00262A  00                 	db	low (_I2C1_DO_RX_NACK_STOP shr (0+16))
   202   00262B  7C                 	db	low _I2C1_DO_RX_NACK_RESTART
   203   00262C  36                 	db	high _I2C1_DO_RX_NACK_RESTART
   204   00262D  00                 	db	low (_I2C1_DO_RX_NACK_RESTART shr (0+16))
   205   00262E  18                 	db	low _I2C1_DO_RESET
   206   00262F  36                 	db	high _I2C1_DO_RESET
   207   002630  00                 	db	low (_I2C1_DO_RESET shr (0+16))
   208   002631  0C                 	db	low _I2C1_DO_ADDRESS_NACK
   209   002632  2F                 	db	high _I2C1_DO_ADDRESS_NACK
   210   002633  00                 	db	low (_I2C1_DO_ADDRESS_NACK shr (0+16))
   211   002634  98                 	db	low _I2C1_DO_BUS_COLLISION
   212   002635  2E                 	db	high _I2C1_DO_BUS_COLLISION
   213   002636  00                 	db	low (_I2C1_DO_BUS_COLLISION shr (0+16))
   214   002637  0A                 	db	low _I2C1_DO_BUS_ERROR
   215   002638  36                 	db	high _I2C1_DO_BUS_ERROR
   216   002639  00                 	db	low (_I2C1_DO_BUS_ERROR shr (0+16))
   217   00263A                     __end_of_i2c1_fsmStateTable:
   218                           	callstack 0
   219   000000                     _I2C1SCLPPS	set	625
   220   000000                     _U1RXPPS	set	626
   221   000000                     _RB2I2C	set	648
   222   000000                     _RB1I2C	set	649
   223   000000                     _TRISD	set	1225
   224   000000                     _TRISC	set	1224
   225   000000                     _TRISB	set	1223
   226   000000                     _LATC	set	1216
   227   000000                     _LATB	set	1215
   228   000000                     _OSCTUNE	set	176
   229   000000                     _OSCFRQ	set	177
   230   000000                     _OSCEN	set	179
   231   000000                     _I2C1TXB	set	652
   232   000000                     _I2C1RXB	set	651
   233   000000                     _I2C1PIE	set	667
   234   000000                     _ADERRL	set	989
   235   000000                     _ADERRH	set	990
   236   000000                     _ADPREVL	set	1000
   237   000000                     _ADPREVH	set	1001
   238   000000                     _ADFLTRL	set	993
   239   000000                     _ADFLTRH	set	994
   240   000000                     _ADACCL	set	995
   241   000000                     _ADACCH	set	996
   242   000000                     _ADCNT	set	998
   243   000000                     _ADRESL	set	1002
   244   000000                     _ADRESH	set	1003
   245   000000                     _ADCON0	set	1011
   246   000000                     _ADCON1	set	1012
   247   000000                     _ADPREH	set	1010
   248   000000                     _ADPREL	set	1009
   249   000000                     _ADCAP	set	1008
   250   000000                     _ADACQH	set	1007
   251   000000                     _ADPCH	set	1004
   252   000000                     _ADRPT	set	999
   253   000000                     _ADACCU	set	997
   254   000000                     _ADSTPTH	set	992
   255   000000                     _ADSTPTL	set	991
   256   000000                     _ADUTHH	set	988
   257   000000                     _ADUTHL	set	987
   258   000000                     _ADLTHH	set	986
   259   00263A                     STR_1:
   260                           
   261                           ; BSR set to: 2
   262   00263A  50                 	db	80	;'P'
   263   00263B  72                 	db	114	;'r'
   264   00263C  6F                 	db	111	;'o'
   265   00263D  67                 	db	103	;'g'
   266   00263E  72                 	db	114	;'r'
   267   00263F  61                 	db	97	;'a'
   268   002640  6D                 	db	109	;'m'
   269   002641  61                 	db	97	;'a'
   270   002642  20                 	db	32
   271   002643  49                 	db	73	;'I'
   272   002644  32                 	db	50	;'2'
   273   002645  43                 	db	67	;'C'
   274   002646  20                 	db	32
   275   002647  4C                 	db	76	;'L'
   276   002648  43                 	db	67	;'C'
   277   002649  44                 	db	68	;'D'
   278   00264A  20                 	db	32
   279   00264B  49                 	db	73	;'I'
   280   00264C  6E                 	db	110	;'n'
   281   00264D  69                 	db	105	;'i'
   282   00264E  63                 	db	99	;'c'
   283   00264F  69                 	db	105	;'i'
   284   002650  61                 	db	97	;'a'
   285   002651  64                 	db	100	;'d'
   286   002652  6F                 	db	111	;'o'
   287   002653  20                 	db	32
   288   002654  0D                 	db	13
   289   002655  0A                 	db	10
   290   002656  00                 	db	0
   291   002657                     STR_2:
   292                           
   293                           ; BSR set to: 2
   294   002657  43                 	db	67	;'C'
   295   002658  6F                 	db	111	;'o'
   296   002659  72                 	db	114	;'r'
   297   00265A  72                 	db	114	;'r'
   298   00265B  69                 	db	105	;'i'
   299   00265C  65                 	db	101	;'e'
   300   00265D  6E                 	db	110	;'n'
   301   00265E  64                 	db	100	;'d'
   302   00265F  6F                 	db	111	;'o'
   303   002660  20                 	db	32
   304   002661  4D                 	db	77	;'M'
   305   002662  61                 	db	97	;'a'
   306   002663  69                 	db	105	;'i'
   307   002664  6E                 	db	110	;'n'
   308   002665  20                 	db	32
   309   002666  0D                 	db	13
   310   002667  0A                 	db	10
   311   002668  00                 	db	0
   312   002669  00                 	db	0	; dummy byte at the end
   313   000000                     
   314                           	psect	nvCOMRAM
   315   000557                     __pnvCOMRAM:
   316                           	callstack 0
   317   000557                     _UART1_OverrunErrorHandler:
   318                           	callstack 0
   319   000557                     	ds	3
   320   00055A                     _UART1_FramingErrorHandler:
   321                           	callstack 0
   322   00055A                     	ds	3
   323                           
   324                           	psect	nvBANK5
   325   000580                     __pnvBANK5:
   326                           	callstack 0
   327   000580                     _UART1_ErrorHandler:
   328                           	callstack 0
   329   000580                     	ds	3
   330   000000                     _I2C1PIEbits	set	667
   331   000000                     _I2C1PIRbits	set	666
   332   000000                     _I2C1ERRbits	set	663
   333   000000                     _I2C1CON1bits	set	661
   334   000000                     _I2C1CON0bits	set	660
   335   000000                     _U1ERRIRbits	set	690
   336   000000                     _U1CON0bits	set	683
   337   000000                     _ADCON1bits	set	1012
   338   000000                     _ADSTATbits	set	1015
   339   000000                     _ADCON2bits	set	1013
   340   000000                     _ADCON3bits	set	1014
   341   000000                     _ADCON0bits	set	1011
   342   000000                     _LATFbits	set	1219
   343   000000                     _PMD0	set	96
   344   000000                     _ACTCON	set	172
   345   000000                     _OSCCON1	set	173
   346   000000                     _RC4I2C	set	646
   347   000000                     _RC3I2C	set	647
   348   000000                     _I2C1CNT	set	653
   349   000000                     _I2C1CON0	set	660
   350   000000                     _U1RXB	set	673
   351   000000                     _U1P1L	set	677
   352   000000                     _ADLTHL	set	985
   353   000000                     _PIR4bits	set	1202
   354   000000                     _U1ERRIE	set	691
   355   000000                     _U1ERRIR	set	690
   356   000000                     _U1UIR	set	689
   357   000000                     _U1FIFO	set	688
   358   000000                     _U1BRGH	set	687
   359   000000                     _U1BRGL	set	686
   360   000000                     _U1CON2	set	685
   361   000000                     _U1CON1	set	684
   362   000000                     _U1CON0	set	683
   363   000000                     _U1P3H	set	682
   364   000000                     _U1P3L	set	681
   365   000000                     _U1P2H	set	680
   366   000000                     _U1P2L	set	679
   367   000000                     _U1P1H	set	678
   368   000000                     _PIR7bits	set	1205
   369   000000                     _U1TXB	set	675
   370   000000                     _ADACQL	set	1006
   371   000000                     _ANSELA	set	1024
   372   000000                     _ANSELB	set	1032
   373   000000                     _ANSELC	set	1040
   374   000000                     _ANSELD	set	1048
   375   000000                     _PIE7bits	set	1189
   376   000000                     _ADCLK	set	1018
   377   000000                     _ADACT	set	1017
   378   000000                     _ADREF	set	1016
   379   000000                     _ADSTAT	set	1015
   380   000000                     _ADCON3	set	1014
   381   000000                     _ADCON2	set	1013
   382   000000                     _I2C1STAT1bits	set	665
   383   000000                     _I2C1ERR	set	663
   384   000000                     _I2C1PIR	set	666
   385   000000                     _I2C1CLK	set	668
   386   000000                     _I2C1CON2	set	662
   387   000000                     _I2C1CON1	set	661
   388   000000                     _LATA	set	1214
   389   000000                     _LATD	set	1217
   390   000000                     _LATE	set	1218
   391   000000                     _OSCCON3	set	175
   392   000000                     _RC3PPS	set	532
   393   000000                     _I2C1SDAPPS	set	624
   394   000000                     _PMD3	set	99
   395   000000                     _PMD1	set	97
   396   000000                     _PMD8	set	104
   397   000000                     _PMD7	set	103
   398   000000                     _PMD6	set	102
   399   000000                     _PMD5	set	101
   400   000000                     _PMD4	set	100
   401   000000                     _TRISA	set	1222
   402   000000                     _TRISE	set	1226
   403   000000                     _LATF	set	1219
   404   000000                     _TRISF	set	1227
   405   000000                     _INLVLD	set	1052
   406   000000                     _SLRCOND	set	1051
   407   000000                     _ODCOND	set	1050
   408   000000                     _WPUD	set	1049
   409   000000                     _ANSELE	set	1056
   410   000000                     _INLVLC	set	1044
   411   000000                     _SLRCONC	set	1043
   412   000000                     _ODCONC	set	1042
   413   000000                     _WPUC	set	1041
   414   000000                     _INLVLB	set	1036
   415   000000                     _SLRCONB	set	1035
   416   000000                     _ODCONB	set	1034
   417   000000                     _WPUB	set	1033
   418   000000                     _INLVLE	set	1060
   419   000000                     _SLRCONE	set	1059
   420   000000                     _ODCONE	set	1058
   421   000000                     _WPUE	set	1057
   422   000000                     _ANSELF	set	1064
   423   000000                     _INLVLF	set	1068
   424   000000                     _SLRCONF	set	1067
   425   000000                     _ODCONF	set	1066
   426   000000                     _WPUF	set	1065
   427   000000                     _INLVLA	set	1028
   428   000000                     _SLRCONA	set	1027
   429   000000                     _ODCONA	set	1026
   430   000000                     _WPUA	set	1025
   431   000000                     _RF1PPS	set	554
   432   000000                     _RC4PPS	set	533
   433                           
   434                           ; #config settings
   435                           
   436                           	psect	cinit
   437   003226                     __pcinit:
   438                           	callstack 0
   439   003226                     start_initialization:
   440                           	callstack 0
   441   003226                     __initialization:
   442                           	callstack 0
   443                           
   444                           ; Initialize objects allocated to COMRAM (2 bytes)
   445                           ; load TBLPTR registers with __pidataCOMRAM
   446   003226  0EF8               	movlw	low __pidataCOMRAM
   447   003228  6EF6               	movwf	tblptrl,c
   448   00322A  0E36               	movlw	high __pidataCOMRAM
   449   00322C  6EF7               	movwf	tblptrh,c
   450   00322E  0E00               	movlw	low (__pidataCOMRAM shr (0+16))
   451   003230  6EF8               	movwf	tblptru,c
   452   003232  0009               	tblrd		*+	;fetch initializer
   453   003234  C4F5 F55D          	movff	tablat,__pdataCOMRAM
   454   003238  0009               	tblrd		*+	;fetch initializer
   455   00323A  C4F5 F55E          	movff	tablat,__pdataCOMRAM+1
   456                           
   457                           ; Clear objects allocated to BANK5 (32 bytes)
   458   00323E  EE01  F160         	lfsr	0,__pbssBANK5
   459   003242  0E20               	movlw	32
   460   003244                     clear_0:
   461   003244  6AEE               	clrf	postinc0,c
   462   003246  06E8               	decf	wreg,f,c
   463   003248  E1FD               	bnz	clear_0
   464                           
   465                           ; Clear objects allocated to COMRAM (49 bytes)
   466   00324A  EE01  F101         	lfsr	0,__pbssCOMRAM
   467   00324E  0E31               	movlw	49
   468   003250                     clear_1:
   469   003250  6AEE               	clrf	postinc0,c
   470   003252  06E8               	decf	wreg,f,c
   471   003254  E1FD               	bnz	clear_1
   472   003256                     end_of_initialization:
   473                           	callstack 0
   474   003256                     __end_of__initialization:
   475                           	callstack 0
   476   003256  0100               	movlb	0
   477   003258  EF2A  F014         	goto	_main	;jump to C main() function
   478                           
   479                           	psect	bssCOMRAM
   480   000501                     __pbssCOMRAM:
   481                           	callstack 0
   482   000501                     _I2C1_Status:
   483                           	callstack 0
   484   000501                     	ds	42
   485   00052B                     _width:
   486                           	callstack 0
   487   00052B                     	ds	2
   488   00052D                     _prec:
   489                           	callstack 0
   490   00052D                     	ds	2
   491   00052F                     _flags:
   492                           	callstack 0
   493   00052F                     	ds	1
   494   000530                     __lcd_params:
   495                           	callstack 0
   496   000530                     	ds	1
   497   000531                     _uart1RxLastError:
   498                           	callstack 0
   499   000531                     	ds	1
   500                           
   501                           	psect	dataCOMRAM
   502   00055D                     __pdataCOMRAM:
   503                           	callstack 0
   504   00055D                     _DIR_PCF:
   505                           	callstack 0
   506   00055D                     	ds	1
   507   00055E                     	ds	1
   508                           
   509                           	psect	bssBANK5
   510   000560                     __pbssBANK5:
   511                           	callstack 0
   512   000560                     	ds	32
   513                           
   514                           	psect	cstackCOMRAM
   515   000532                     __pcstackCOMRAM:
   516                           	callstack 0
   517   000532                     UART1_Write@txData:
   518                           	callstack 0
   519   000532                     I2C1_Open@address:
   520                           	callstack 0
   521   000532                     I2C1_Close@returnValue:
   522                           	callstack 0
   523   000532                     I2C1_MasterSendTxData@data:
   524                           	callstack 0
   525   000532                     I2C1_MasterSetCounter@counter:
   526                           	callstack 0
   527   000532                     I2C1_SetBuffer@buffer:
   528                           	callstack 0
   529   000532                     UART1_SetFramingErrorHandler@interruptHandler:
   530                           	callstack 0
   531   000532                     UART1_SetOverrunErrorHandler@interruptHandler:
   532                           	callstack 0
   533   000532                     UART1_SetErrorHandler@interruptHandler:
   534                           	callstack 0
   535   000532                     I2C1_SetCallback@cb:
   536                           	callstack 0
   537                           
   538                           ; 3 bytes @ 0x0
   539   000532                     	ds	1
   540   000533                     putch@txData:
   541                           	callstack 0
   542   000533                     I2C1_Open@returnValue:
   543                           	callstack 0
   544                           
   545                           ; 1 bytes @ 0x1
   546   000533                     	ds	1
   547   000534                     I2C1_SetBuffer@bufferSize:
   548                           	callstack 0
   549   000534                     fputc@c:
   550                           	callstack 0
   551                           
   552                           ; 2 bytes @ 0x2
   553   000534                     	ds	1
   554   000535                     I2C1_SetCallback@ptr:
   555                           	callstack 0
   556                           
   557                           ; 2 bytes @ 0x3
   558   000535                     	ds	1
   559   000536                     fputc@fp:
   560                           	callstack 0
   561                           
   562                           ; 2 bytes @ 0x4
   563   000536                     	ds	1
   564   000537                     I2C1_SetCallback@idx:
   565                           	callstack 0
   566                           
   567                           ; 1 bytes @ 0x5
   568   000537                     	ds	1
   569   000538                     ??_fputc:
   570   000538                     I2C1_SetDataCompleteCallback@cb:
   571                           	callstack 0
   572   000538                     I2C1_SetAddressNackCallback@cb:
   573                           	callstack 0
   574                           
   575                           ; 3 bytes @ 0x6
   576   000538                     	ds	3
   577   00053B                     I2C1_SetDataCompleteCallback@ptr:
   578                           	callstack 0
   579   00053B                     I2C1_SetAddressNackCallback@ptr:
   580                           	callstack 0
   581                           
   582                           ; 2 bytes @ 0x9
   583   00053B                     	ds	2
   584   00053D                     rd1RegCompleteHandler@ptr:
   585                           	callstack 0
   586   00053D                     rd2RegCompleteHandler@ptr:
   587                           	callstack 0
   588   00053D                     wr1RegCompleteHandler@ptr:
   589                           	callstack 0
   590   00053D                     wr2RegCompleteHandler@ptr:
   591                           	callstack 0
   592   00053D                     rdBlkRegCompleteHandler@ptr:
   593                           	callstack 0
   594   00053D                     I2C1_CallbackReturnReset@funPtr:
   595                           	callstack 0
   596   00053D                     vfpfcnvrt@fp:
   597                           	callstack 0
   598                           
   599                           ; 2 bytes @ 0xB
   600   00053D                     	ds	2
   601   00053F                     ??_I2C1_DO_TX:
   602   00053F                     ??_I2C1_DO_TX_EMPTY:
   603   00053F                     ??_I2C1_DO_RX_EMPTY:
   604   00053F                     ??_I2C1_DO_ADDRESS_NACK:
   605   00053F                     ??_I2C1_DO_BUS_COLLISION:
   606   00053F                     vfpfcnvrt@fmt:
   607                           	callstack 0
   608                           
   609                           ; 2 bytes @ 0xD
   610   00053F                     	ds	2
   611   000541                     ??_I2C1_DO_RX:
   612   000541                     _I2C1_DO_TX$1411:
   613                           	callstack 0
   614   000541                     vfpfcnvrt@ap:
   615                           	callstack 0
   616                           
   617                           ; 2 bytes @ 0xF
   618   000541                     	ds	2
   619   000543                     ?_vfprintf:
   620                           	callstack 0
   621   000543                     I2C1_DO_TX@dataTx:
   622                           	callstack 0
   623   000543                     I2C1_DO_RX@retFsmState:
   624                           	callstack 0
   625   000543                     vfprintf@fp:
   626                           	callstack 0
   627                           
   628                           ; 2 bytes @ 0x11
   629   000543                     	ds	1
   630   000544                     I2C1_DO_TX@retFsmState:
   631                           	callstack 0
   632                           
   633                           ; 1 bytes @ 0x12
   634   000544                     	ds	1
   635   000545                     I2C1_MasterOperation@read:
   636                           	callstack 0
   637   000545                     vfprintf@fmt:
   638                           	callstack 0
   639                           
   640                           ; 2 bytes @ 0x13
   641   000545                     	ds	1
   642   000546                     I2C1_MasterOperation@returnValue:
   643                           	callstack 0
   644                           
   645                           ; 1 bytes @ 0x14
   646   000546                     	ds	1
   647   000547                     I2C1_Write@data:
   648                           	callstack 0
   649   000547                     vfprintf@ap:
   650                           	callstack 0
   651                           
   652                           ; 2 bytes @ 0x15
   653   000547                     	ds	1
   654   000548                     I2C1_Write@address:
   655                           	callstack 0
   656                           
   657                           ; 1 bytes @ 0x16
   658   000548                     	ds	1
   659   000549                     PCF_Wr@dato:
   660                           	callstack 0
   661   000549                     vfprintf@cfmt:
   662                           	callstack 0
   663                           
   664                           ; 2 bytes @ 0x17
   665   000549                     	ds	1
   666   00054A                     loadPCF@mode:
   667                           	callstack 0
   668                           
   669                           ; 1 bytes @ 0x18
   670   00054A                     	ds	1
   671   00054B                     ??_loadPCF:
   672   00054B                     ?_printf:
   673                           	callstack 0
   674   00054B                     printf@fmt:
   675                           	callstack 0
   676                           
   677                           ; 2 bytes @ 0x19
   678   00054B                     	ds	2
   679   00054D                     loadPCF@dato:
   680                           	callstack 0
   681   00054D                     printf@ap:
   682                           	callstack 0
   683                           
   684                           ; 2 bytes @ 0x1B
   685   00054D                     	ds	1
   686   00054E                     ??_sendCMD:
   687                           
   688                           ; 1 bytes @ 0x1C
   689   00054E                     	ds	1
   690   00054F                     sendCMD@nibbleH:
   691                           	callstack 0
   692                           
   693                           ; 1 bytes @ 0x1D
   694   00054F                     	ds	1
   695   000550                     sendCMD@nibbleL:
   696                           	callstack 0
   697                           
   698                           ; 1 bytes @ 0x1E
   699   000550                     	ds	1
   700   000551                     sendCMD@cmd:
   701                           	callstack 0
   702                           
   703                           ; 1 bytes @ 0x1F
   704   000551                     	ds	1
   705   000552                     I2C_LCD_Cmd@cmd:
   706                           	callstack 0
   707                           
   708                           ; 1 bytes @ 0x20
   709   000552                     	ds	1
   710   000553                     ??_I2C_LCD_Init:
   711                           
   712                           ; 1 bytes @ 0x21
   713   000553                     	ds	2
   714   000555                     ??_main:
   715                           
   716                           ; 1 bytes @ 0x23
   717   000555                     	ds	2
   718                           
   719 ;;
   720 ;;Main: autosize = 0, tempsize = 2, incstack = 0, save=0
   721 ;;
   722 ;; *************** function _main *****************
   723 ;; Defined at:
   724 ;;		line 5 in file "main.c"
   725 ;; Parameters:    Size  Location     Type
   726 ;;		None
   727 ;; Auto vars:     Size  Location     Type
   728 ;;		None
   729 ;; Return value:  Size  Location     Type
   730 ;;                  1    wreg      void 
   731 ;; Registers used:
   732 ;;		wreg, fsr1l, fsr1h, fsr2l, fsr2h, status,2, status,0, pcl, pclath, pclatu, tosl, tblptrl, tblptrh, tblptru, prodl, p
      +rodh, cstack
   733 ;; Tracked objects:
   734 ;;		On entry : 0/0
   735 ;;		On exit  : 0/0
   736 ;;		Unchanged: 0/0
   737 ;; Data sizes:     COMRAM   BANK5   BANK6   BANK7   BANK8   BANK9  BANK10  BANK11  BANK12  BANK13  BANK14  BANK15  BANK1
      +6  BANK17  BANK18  BANK19  BANK20  BANK21  BANK22  BANK23  BANK24  BANK25  BANK26  BANK27  BANK28  BANK29  BANK30  BANK3
      +1  BANK32  BANK33  BANK34  BANK35  BANK36
   738 ;;      Params:         0       0       0       0       0       0       0       0       0       0       0       0       
      +0       0       0       0       0       0       0       0       0       0       0       0       0       0       0       
      +0       0       0       0       0       0
   739 ;;      Locals:         0       0       0       0       0       0       0       0       0       0       0       0       
      +0       0       0       0       0       0       0       0       0       0       0       0       0       0       0       
      +0       0       0       0       0       0
   740 ;;      Temps:          2       0       0       0       0       0       0       0       0       0       0       0       
      +0       0       0       0       0       0       0       0       0       0       0       0       0       0       0       
      +0       0       0       0       0       0
   741 ;;      Totals:         2       0       0       0       0       0       0       0       0       0       0       0       
      +0       0       0       0       0       0       0       0       0       0       0       0       0       0       0       
      +0       0       0       0       0       0
   742 ;;Total ram usage:        2 bytes
   743 ;; Hardware stack levels required when called: 17
   744 ;; This function calls:
   745 ;;		_I2C_LCD_Init
   746 ;;		_SYSTEM_Initialize
   747 ;;		_printf
   748 ;; This function is called by:
   749 ;;		Startup code after reset
   750 ;; This function uses a non-reentrant model
   751 ;;
   752                           
   753                           	psect	text0
   754   002854                     __ptext0:
   755                           	callstack 0
   756   002854                     _main:
   757                           	callstack 110
   758   002854                     
   759                           ;main.c: 8:     SYSTEM_Initialize();
   760   002854  EC84  F01A         	call	_SYSTEM_Initialize	;wreg free
   761   002858                     
   762                           ;main.c: 21:     printf("Programa I2C LCD Iniciado \r\n");
   763   002858  0E3A               	movlw	low STR_1
   764   00285A  6E4B               	movwf	printf@fmt^(0+1280),c
   765   00285C  0E26               	movlw	high STR_1
   766   00285E  6E4C               	movwf	(printf@fmt+1)^(0+1280),c
   767   002860  ECF7  F019         	call	_printf	;wreg free
   768   002864                     
   769                           ;main.c: 22:     _delay((unsigned long)((1000)*(64000000/4000.0)));
   770   002864  0E52               	movlw	82
   771   002866  6E56               	movwf	(??_main+1)^(0+1280),c
   772   002868  0E2B               	movlw	43
   773   00286A  6E55               	movwf	??_main^(0+1280),c
   774   00286C  0E00               	movlw	0
   775   00286E                     u1387:
   776   00286E  2EE8               	decfsz	wreg,f,c
   777   002870  D7FE               	bra	u1387
   778   002872  2E55               	decfsz	??_main^(0+1280),f,c
   779   002874  D7FC               	bra	u1387
   780   002876  2E56               	decfsz	(??_main+1)^(0+1280),f,c
   781   002878  D7FA               	bra	u1387
   782   00287A  D000               	nop2	
   783   00287C                     
   784                           ;main.c: 23:     _delay((unsigned long)((1000)*(64000000/4000.0)));
   785   00287C  0E52               	movlw	82
   786   00287E  6E56               	movwf	(??_main+1)^(0+1280),c
   787   002880  0E2B               	movlw	43
   788   002882  6E55               	movwf	??_main^(0+1280),c
   789   002884  0E00               	movlw	0
   790   002886                     u1397:
   791   002886  2EE8               	decfsz	wreg,f,c
   792   002888  D7FE               	bra	u1397
   793   00288A  2E55               	decfsz	??_main^(0+1280),f,c
   794   00288C  D7FC               	bra	u1397
   795   00288E  2E56               	decfsz	(??_main+1)^(0+1280),f,c
   796   002890  D7FA               	bra	u1397
   797   002892  D000               	nop2	
   798   002894                     
   799                           ;main.c: 24:     _delay((unsigned long)((1000)*(64000000/4000.0)));
   800   002894  0E52               	movlw	82
   801   002896  6E56               	movwf	(??_main+1)^(0+1280),c
   802   002898  0E2B               	movlw	43
   803   00289A  6E55               	movwf	??_main^(0+1280),c
   804   00289C  0E00               	movlw	0
   805   00289E                     u1407:
   806   00289E  2EE8               	decfsz	wreg,f,c
   807   0028A0  D7FE               	bra	u1407
   808   0028A2  2E55               	decfsz	??_main^(0+1280),f,c
   809   0028A4  D7FC               	bra	u1407
   810   0028A6  2E56               	decfsz	(??_main+1)^(0+1280),f,c
   811   0028A8  D7FA               	bra	u1407
   812   0028AA  D000               	nop2	
   813   0028AC                     
   814                           ;main.c: 25:     _delay((unsigned long)((1000)*(64000000/4000.0)));
   815   0028AC  0E52               	movlw	82
   816   0028AE  6E56               	movwf	(??_main+1)^(0+1280),c
   817   0028B0  0E2B               	movlw	43
   818   0028B2  6E55               	movwf	??_main^(0+1280),c
   819   0028B4  0E00               	movlw	0
   820   0028B6                     u1417:
   821   0028B6  2EE8               	decfsz	wreg,f,c
   822   0028B8  D7FE               	bra	u1417
   823   0028BA  2E55               	decfsz	??_main^(0+1280),f,c
   824   0028BC  D7FC               	bra	u1417
   825   0028BE  2E56               	decfsz	(??_main+1)^(0+1280),f,c
   826   0028C0  D7FA               	bra	u1417
   827   0028C2  D000               	nop2	
   828   0028C4                     
   829                           ;main.c: 26:     printf("Corriendo Main \r\n");
   830   0028C4  0E57               	movlw	low STR_2
   831   0028C6  6E4B               	movwf	printf@fmt^(0+1280),c
   832   0028C8  0E26               	movlw	high STR_2
   833   0028CA  6E4C               	movwf	(printf@fmt+1)^(0+1280),c
   834   0028CC  ECF7  F019         	call	_printf	;wreg free
   835   0028D0                     
   836                           ;main.c: 28:     I2C_LCD_Init();
   837   0028D0  ECD2  F015         	call	_I2C_LCD_Init	;wreg free
   838   0028D4                     l3703:
   839   0028D4  B6C3               	btfsc	195,3,c	;volatile
   840   0028D6  EF6F  F014         	goto	u1351
   841   0028DA  EF72  F014         	goto	u1350
   842   0028DE                     u1351:
   843   0028DE  0E01               	movlw	1
   844   0028E0  EF73  F014         	goto	u1356
   845   0028E4                     u1350:
   846   0028E4  0E00               	movlw	0
   847   0028E6                     u1356:
   848   0028E6  0AFF               	xorlw	255
   849   0028E8  6E55               	movwf	??_main^(0+1280),c
   850   0028EA  4655               	rlncf	??_main^(0+1280),f,c
   851   0028EC  4655               	rlncf	??_main^(0+1280),f,c
   852   0028EE  4655               	rlncf	??_main^(0+1280),f,c
   853   0028F0  50C3               	movf	195,w,c	;volatile
   854   0028F2  1855               	xorwf	??_main^(0+1280),w,c
   855   0028F4  0BF7               	andlw	-9
   856   0028F6  1855               	xorwf	??_main^(0+1280),w,c
   857   0028F8  6EC3               	movwf	195,c	;volatile
   858   0028FA                     
   859                           ;main.c: 36:         _delay((unsigned long)((500)*(64000000/4000.0)));
   860   0028FA  0E29               	movlw	41
   861   0028FC  6E56               	movwf	(??_main+1)^(0+1280),c
   862   0028FE  0E96               	movlw	150
   863   002900  6E55               	movwf	??_main^(0+1280),c
   864   002902  0E7F               	movlw	127
   865   002904                     u1427:
   866   002904  2EE8               	decfsz	wreg,f,c
   867   002906  D7FE               	bra	u1427
   868   002908  2E55               	decfsz	??_main^(0+1280),f,c
   869   00290A  D7FC               	bra	u1427
   870   00290C  2E56               	decfsz	(??_main+1)^(0+1280),f,c
   871   00290E  D7FA               	bra	u1427
   872   002910  F000               	nop	
   873   002912  EF6A  F014         	goto	l3703
   874   002916  EFFE  F0FF         	goto	start
   875   00291A                     __end_of_main:
   876                           	callstack 0
   877                           
   878 ;; *************** function _printf *****************
   879 ;; Defined at:
   880 ;;		line 5 in file "C:\Program Files\Microchip\xc8\v2.41\pic\sources\c99\common\printf.c"
   881 ;; Parameters:    Size  Location     Type
   882 ;;  fmt             2   25[COMRAM] PTR const unsigned char 
   883 ;;		 -> STR_2(18), STR_1(29), 
   884 ;; Auto vars:     Size  Location     Type
   885 ;;  ap              2   27[COMRAM] PTR void [1]
   886 ;;		 -> ?_printf(2), 
   887 ;;  ret             2    0        int 
   888 ;; Return value:  Size  Location     Type
   889 ;;                  2   25[COMRAM] int 
   890 ;; Registers used:
   891 ;;		wreg, fsr1l, fsr1h, fsr2l, fsr2h, status,2, status,0, tblptrl, tblptrh, tblptru, cstack
   892 ;; Tracked objects:
   893 ;;		On entry : 0/0
   894 ;;		On exit  : 0/0
   895 ;;		Unchanged: 0/0
   896 ;; Data sizes:     COMRAM   BANK5   BANK6   BANK7   BANK8   BANK9  BANK10  BANK11  BANK12  BANK13  BANK14  BANK15  BANK1
      +6  BANK17  BANK18  BANK19  BANK20  BANK21  BANK22  BANK23  BANK24  BANK25  BANK26  BANK27  BANK28  BANK29  BANK30  BANK3
      +1  BANK32  BANK33  BANK34  BANK35  BANK36
   897 ;;      Params:         2       0       0       0       0       0       0       0       0       0       0       0       
      +0       0       0       0       0       0       0       0       0       0       0       0       0       0       0       
      +0       0       0       0       0       0
   898 ;;      Locals:         2       0       0       0       0       0       0       0       0       0       0       0       
      +0       0       0       0       0       0       0       0       0       0       0       0       0       0       0       
      +0       0       0       0       0       0
   899 ;;      Temps:          0       0       0       0       0       0       0       0       0       0       0       0       
      +0       0       0       0       0       0       0       0       0       0       0       0       0       0       0       
      +0       0       0       0       0       0
   900 ;;      Totals:         4       0       0       0       0       0       0       0       0       0       0       0       
      +0       0       0       0       0       0       0       0       0       0       0       0       0       0       0       
      +0       0       0       0       0       0
   901 ;;Total ram usage:        4 bytes
   902 ;; Hardware stack levels used: 1
   903 ;; Hardware stack levels required when called: 5
   904 ;; This function calls:
   905 ;;		_vfprintf
   906 ;; This function is called by:
   907 ;;		_main
   908 ;; This function uses a non-reentrant model
   909 ;;
   910                           
   911                           	psect	text1
   912   0033EE                     __ptext1:
   913                           	callstack 0
   914   0033EE                     _printf:
   915                           	callstack 121
   916   0033EE  0E4D               	movlw	low (?_printf+2)
   917   0033F0  6E4D               	movwf	printf@ap^(0+1280),c
   918   0033F2  0E05               	movlw	high (?_printf+2)
   919   0033F4  6E4E               	movwf	(printf@ap+1)^(0+1280),c
   920   0033F6  0E00               	movlw	0
   921   0033F8  6E43               	movwf	vfprintf@fp^(0+1280),c
   922   0033FA  0E00               	movlw	0
   923   0033FC  6E44               	movwf	(vfprintf@fp+1)^(0+1280),c
   924   0033FE  C54B  F545         	movff	printf@fmt,vfprintf@fmt
   925   003402  C54C  F546         	movff	printf@fmt+1,vfprintf@fmt+1
   926   003406  0E4D               	movlw	low printf@ap
   927   003408  6E47               	movwf	vfprintf@ap^(0+1280),c
   928   00340A  0E05               	movlw	high printf@ap
   929   00340C  6E48               	movwf	(vfprintf@ap+1)^(0+1280),c
   930   00340E  EC79  F018         	call	_vfprintf	;wreg free
   931   003412  0012               	return		;funcret
   932   003414                     __end_of_printf:
   933                           	callstack 0
   934                           
   935 ;; *************** function _vfprintf *****************
   936 ;; Defined at:
   937 ;;		line 1546 in file "C:\Program Files\Microchip\xc8\v2.41\pic\sources\c99\common\doprnt.c"
   938 ;; Parameters:    Size  Location     Type
   939 ;;  fp              2   17[COMRAM] PTR struct _IO_FILE
   940 ;;		 -> NULL(0), 
   941 ;;  fmt             2   19[COMRAM] PTR const unsigned char 
   942 ;;		 -> STR_2(18), STR_1(29), 
   943 ;;  ap              2   21[COMRAM] PTR PTR void 
   944 ;;		 -> printf@ap(2), 
   945 ;; Auto vars:     Size  Location     Type
   946 ;;  cfmt            2   23[COMRAM] PTR unsigned char 
   947 ;;		 -> STR_2(18), STR_1(29), 
   948 ;; Return value:  Size  Location     Type
   949 ;;                  2   17[COMRAM] int 
   950 ;; Registers used:
   951 ;;		wreg, fsr1l, fsr1h, fsr2l, fsr2h, status,2, status,0, tblptrl, tblptrh, tblptru, cstack
   952 ;; Tracked objects:
   953 ;;		On entry : 0/0
   954 ;;		On exit  : 0/0
   955 ;;		Unchanged: 0/0
   956 ;; Data sizes:     COMRAM   BANK5   BANK6   BANK7   BANK8   BANK9  BANK10  BANK11  BANK12  BANK13  BANK14  BANK15  BANK1
      +6  BANK17  BANK18  BANK19  BANK20  BANK21  BANK22  BANK23  BANK24  BANK25  BANK26  BANK27  BANK28  BANK29  BANK30  BANK3
      +1  BANK32  BANK33  BANK34  BANK35  BANK36
   957 ;;      Params:         6       0       0       0       0       0       0       0       0       0       0       0       
      +0       0       0       0       0       0       0       0       0       0       0       0       0       0       0       
      +0       0       0       0       0       0
   958 ;;      Locals:         2       0       0       0       0       0       0       0       0       0       0       0       
      +0       0       0       0       0       0       0       0       0       0       0       0       0       0       0       
      +0       0       0       0       0       0
   959 ;;      Temps:          0       0       0       0       0       0       0       0       0       0       0       0       
      +0       0       0       0       0       0       0       0       0       0       0       0       0       0       0       
      +0       0       0       0       0       0
   960 ;;      Totals:         8       0       0       0       0       0       0       0       0       0       0       0       
      +0       0       0       0       0       0       0       0       0       0       0       0       0       0       0       
      +0       0       0       0       0       0
   961 ;;Total ram usage:        8 bytes
   962 ;; Hardware stack levels used: 1
   963 ;; Hardware stack levels required when called: 4
   964 ;; This function calls:
   965 ;;		_vfpfcnvrt
   966 ;; This function is called by:
   967 ;;		_printf
   968 ;; This function uses a non-reentrant model
   969 ;;
   970                           
   971                           	psect	text2
   972   0030F2                     __ptext2:
   973                           	callstack 0
   974   0030F2                     _vfprintf:
   975                           	callstack 121
   976   0030F2                     
   977                           ;C:\Program Files\Microchip\xc8\v2.41\pic\sources\c99\common\doprnt.c: 1546: int vfprint
      +                          f(FILE *fp, const char *fmt, va_list ap);C:\Program Files\Microchip\xc8\v2.41\pic\source
      +                          s\c99\common\doprnt.c: 1547: {;C:\Program Files\Microchip\xc8\v2.41\pic\sources\c99\comm
      +                          on\doprnt.c: 1549:     char *cfmt;;C:\Program Files\Microchip\xc8\v2.41\pic\sources\c99\
      +                          common\doprnt.c: 1551:     cfmt = (char *)fmt;
   978   0030F2  C545  F549         	movff	vfprintf@fmt,vfprintf@cfmt
   979   0030F6  C546  F54A         	movff	vfprintf@fmt+1,vfprintf@cfmt+1
   980                           
   981                           ;C:\Program Files\Microchip\xc8\v2.41\pic\sources\c99\common\doprnt.c: 1555:     while (
      +                          *cfmt) {
   982   0030FA  EF8D  F018         	goto	l3501
   983   0030FE                     l3499:
   984                           
   985                           ;C:\Program Files\Microchip\xc8\v2.41\pic\sources\c99\common\doprnt.c: 1559:    vfpfcnvr
      +                          t(fp, &cfmt, ap);
   986   0030FE  C543  F53D         	movff	vfprintf@fp,vfpfcnvrt@fp
   987   003102  C544  F53E         	movff	vfprintf@fp+1,vfpfcnvrt@fp+1
   988   003106  0E49               	movlw	low vfprintf@cfmt
   989   003108  6E3F               	movwf	vfpfcnvrt@fmt^(0+1280),c
   990   00310A  0E05               	movlw	high vfprintf@cfmt
   991   00310C  6E40               	movwf	(vfpfcnvrt@fmt+1)^(0+1280),c
   992   00310E  C547  F541         	movff	vfprintf@ap,vfpfcnvrt@ap
   993   003112  C548  F542         	movff	vfprintf@ap+1,vfpfcnvrt@ap+1
   994   003116  EC17  F016         	call	_vfpfcnvrt	;wreg free
   995   00311A                     l3501:
   996                           
   997                           ;C:\Program Files\Microchip\xc8\v2.41\pic\sources\c99\common\doprnt.c: 1555:     while (
      +                          *cfmt) {
   998   00311A  C549  F4F6         	movff	vfprintf@cfmt,tblptrl
   999   00311E  C54A  F4F7         	movff	vfprintf@cfmt+1,tblptrh
  1000   003122                     	if	0	;tblptru may be non-zero
  1001   003122                     	endif
  1002   003122                     	if	1	;Program memory is > 0xFFFF, there are 3 active tblptr bytes
  1003   003122  0E00               	movlw	low (__mediumconst shr (0+16))
  1004   003124  6EF8               	movwf	tblptru,c
  1005   003126                     	endif
  1006   003126  0008               	tblrd		*
  1007   003128  50F5               	movf	tablat,w,c
  1008   00312A  0900               	iorlw	0
  1009   00312C  A4D8               	btfss	status,2,c
  1010   00312E  EF9B  F018         	goto	u1131
  1011   003132  EF9D  F018         	goto	u1130
  1012   003136                     u1131:
  1013   003136  EF7F  F018         	goto	l3499
  1014   00313A                     u1130:
  1015   00313A                     
  1016                           ;C:\Program Files\Microchip\xc8\v2.41\pic\sources\c99\common\doprnt.c: 1564:  return 0;
  1017   00313A  0E00               	movlw	0
  1018   00313C  6E44               	movwf	(?_vfprintf+1)^(0+1280),c
  1019   00313E  0E00               	movlw	0
  1020   003140  6E43               	movwf	?_vfprintf^(0+1280),c
  1021   003142  0012               	return		;funcret
  1022   003144                     __end_of_vfprintf:
  1023                           	callstack 0
  1024                           
  1025 ;; *************** function _vfpfcnvrt *****************
  1026 ;; Defined at:
  1027 ;;		line 1048 in file "C:\Program Files\Microchip\xc8\v2.41\pic\sources\c99\common\doprnt.c"
  1028 ;; Parameters:    Size  Location     Type
  1029 ;;  fp              2   11[COMRAM] PTR struct _IO_FILE
  1030 ;;		 -> NULL(0), 
  1031 ;;  fmt             2   13[COMRAM] PTR PTR unsigned char 
  1032 ;;		 -> vfprintf@cfmt(2), 
  1033 ;;  ap              2   15[COMRAM] PTR PTR void 
  1034 ;;		 -> printf@ap(2), 
  1035 ;; Auto vars:     Size  Location     Type
  1036 ;;  convarg         4    0        struct .
  1037 ;;  cp              3    0        PTR unsigned char 
  1038 ;;  i               2    0        int 
  1039 ;;  done            2    0        int 
  1040 ;;  c               1    0        unsigned char 
  1041 ;; Return value:  Size  Location     Type
  1042 ;;                  1    wreg      void 
  1043 ;; Registers used:
  1044 ;;		wreg, fsr1l, fsr1h, fsr2l, fsr2h, status,2, status,0, tblptrl, tblptrh, tblptru, cstack
  1045 ;; Tracked objects:
  1046 ;;		On entry : 0/0
  1047 ;;		On exit  : 0/0
  1048 ;;		Unchanged: 0/0
  1049 ;; Data sizes:     COMRAM   BANK5   BANK6   BANK7   BANK8   BANK9  BANK10  BANK11  BANK12  BANK13  BANK14  BANK15  BANK1
      +6  BANK17  BANK18  BANK19  BANK20  BANK21  BANK22  BANK23  BANK24  BANK25  BANK26  BANK27  BANK28  BANK29  BANK30  BANK3
      +1  BANK32  BANK33  BANK34  BANK35  BANK36
  1050 ;;      Params:         6       0       0       0       0       0       0       0       0       0       0       0       
      +0       0       0       0       0       0       0       0       0       0       0       0       0       0       0       
      +0       0       0       0       0       0
  1051 ;;      Locals:         0       0       0       0       0       0       0       0       0       0       0       0       
      +0       0       0       0       0       0       0       0       0       0       0       0       0       0       0       
      +0       0       0       0       0       0
  1052 ;;      Temps:          0       0       0       0       0       0       0       0       0       0       0       0       
      +0       0       0       0       0       0       0       0       0       0       0       0       0       0       0       
      +0       0       0       0       0       0
  1053 ;;      Totals:         6       0       0       0       0       0       0       0       0       0       0       0       
      +0       0       0       0       0       0       0       0       0       0       0       0       0       0       0       
      +0       0       0       0       0       0
  1054 ;;Total ram usage:        6 bytes
  1055 ;; Hardware stack levels used: 1
  1056 ;; Hardware stack levels required when called: 3
  1057 ;; This function calls:
  1058 ;;		_fputc
  1059 ;; This function is called by:
  1060 ;;		_vfprintf
  1061 ;; This function uses a non-reentrant model
  1062 ;;
  1063                           
  1064                           	psect	text3
  1065   002C2E                     __ptext3:
  1066                           	callstack 0
  1067   002C2E                     _vfpfcnvrt:
  1068                           	callstack 121
  1069   002C2E                     
  1070                           ;C:\Program Files\Microchip\xc8\v2.41\pic\sources\c99\common\doprnt.c: 1048: vfpfcnvrt(F
      +                          ILE *fp, char *fmt[], va_list ap);C:\Program Files\Microchip\xc8\v2.41\pic\sources\c99\c
      +                          ommon\doprnt.c: 1049: {;C:\Program Files\Microchip\xc8\v2.41\pic\sources\c99\common\dopr
      +                          nt.c: 1050:     char c, *cp;;C:\Program Files\Microchip\xc8\v2.41\pic\sources\c99\common
      +                          \doprnt.c: 1051:     int done, i;;C:\Program Files\Microchip\xc8\v2.41\pic\sources\c99\c
      +                          ommon\doprnt.c: 1059:  } convarg;;C:\Program Files\Microchip\xc8\v2.41\pic\sources\c99\c
      +                          ommon\doprnt.c: 1062:     if ((*fmt)[0] == '%') {
  1071   002C2E  C53F  F4D9         	movff	vfpfcnvrt@fmt,fsr2l
  1072   002C32  C540  F4DA         	movff	vfpfcnvrt@fmt+1,fsr2h
  1073   002C36  C4DE F4F6          	movff	postinc2,tblptrl
  1074   002C3A  C4DD F4F7          	movff	postdec2,tblptrh
  1075   002C3E                     	if	0	;tblptru may be non-zero
  1076   002C3E                     	endif
  1077   002C3E                     	if	1	;Program memory is > 0xFFFF, there are 3 active tblptr bytes
  1078   002C3E  0E00               	movlw	low (__mediumconst shr (0+16))
  1079   002C40  6EF8               	movwf	tblptru,c
  1080   002C42                     	endif
  1081   002C42  0008               	tblrd		*
  1082   002C44  50F5               	movf	tablat,w,c
  1083   002C46  0A25               	xorlw	37
  1084   002C48  A4D8               	btfss	status,2,c
  1085   002C4A  EF29  F016         	goto	u1121
  1086   002C4E  EF2B  F016         	goto	u1120
  1087   002C52                     u1121:
  1088   002C52  EF43  F016         	goto	l3473
  1089   002C56                     u1120:
  1090   002C56                     
  1091                           ;C:\Program Files\Microchip\xc8\v2.41\pic\sources\c99\common\doprnt.c: 1063:         ++*
      +                          fmt;
  1092   002C56  C53F  F4D9         	movff	vfpfcnvrt@fmt,fsr2l
  1093   002C5A  C540  F4DA         	movff	vfpfcnvrt@fmt+1,fsr2h
  1094   002C5E  2ADE               	incf	postinc2,f,c
  1095   002C60  0E00               	movlw	0
  1096   002C62  22DD               	addwfc	postdec2,f,c
  1097   002C64                     
  1098                           ;C:\Program Files\Microchip\xc8\v2.41\pic\sources\c99\common\doprnt.c: 1065:         fla
      +                          gs = width = 0;
  1099   002C64  0E00               	movlw	0
  1100   002C66  6E2C               	movwf	(_width+1)^(0+1280),c
  1101   002C68  0E00               	movlw	0
  1102   002C6A  6E2B               	movwf	_width^(0+1280),c
  1103   002C6C  C52B  F52F         	movff	_width,_flags
  1104   002C70                     
  1105                           ;C:\Program Files\Microchip\xc8\v2.41\pic\sources\c99\common\doprnt.c: 1066:         pre
      +                          c = -1;
  1106   002C70  682D               	setf	_prec^(0+1280),c
  1107   002C72  682E               	setf	(_prec+1)^(0+1280),c
  1108   002C74                     l3469:
  1109                           
  1110                           ;C:\Program Files\Microchip\xc8\v2.41\pic\sources\c99\common\doprnt.c: 1535:         ++*
      +                          fmt;
  1111   002C74  C53F  F4D9         	movff	vfpfcnvrt@fmt,fsr2l
  1112   002C78  C540  F4DA         	movff	vfpfcnvrt@fmt+1,fsr2h
  1113   002C7C  2ADE               	incf	postinc2,f,c
  1114   002C7E  0E00               	movlw	0
  1115   002C80  22DD               	addwfc	postdec2,f,c
  1116   002C82  EF59  F016         	goto	l1755
  1117   002C86                     l3473:
  1118                           
  1119                           ;C:\Program Files\Microchip\xc8\v2.41\pic\sources\c99\common\doprnt.c: 1540:     fputc((
      +                          int)(*fmt)[0], fp);
  1120   002C86  C53F  F4D9         	movff	vfpfcnvrt@fmt,fsr2l
  1121   002C8A  C540  F4DA         	movff	vfpfcnvrt@fmt+1,fsr2h
  1122   002C8E  C4DE F4F6          	movff	postinc2,tblptrl
  1123   002C92  C4DD F4F7          	movff	postdec2,tblptrh
  1124   002C96                     	if	0	;tblptru may be non-zero
  1125   002C96                     	endif
  1126   002C96                     	if	1	;Program memory is > 0xFFFF, there are 3 active tblptr bytes
  1127   002C96  0E00               	movlw	low (__mediumconst shr (0+16))
  1128   002C98  6EF8               	movwf	tblptru,c
  1129   002C9A                     	endif
  1130   002C9A  0008               	tblrd		*
  1131   002C9C  50F5               	movf	tablat,w,c
  1132   002C9E  6E34               	movwf	fputc@c^(0+1280),c
  1133   002CA0  6A35               	clrf	(fputc@c+1)^(0+1280),c
  1134   002CA2  C53D  F536         	movff	vfpfcnvrt@fp,fputc@fp
  1135   002CA6  C53E  F537         	movff	vfpfcnvrt@fp+1,fputc@fp+1
  1136   002CAA  ECC5  F013         	call	_fputc	;wreg free
  1137   002CAE  EF3A  F016         	goto	l3469
  1138   002CB2                     l1755:
  1139   002CB2  0012               	return		;funcret
  1140   002CB4                     __end_of_vfpfcnvrt:
  1141                           	callstack 0
  1142                           
  1143 ;; *************** function _fputc *****************
  1144 ;; Defined at:
  1145 ;;		line 8 in file "C:\Program Files\Microchip\xc8\v2.41\pic\sources\c99\common\nf_fputc.c"
  1146 ;; Parameters:    Size  Location     Type
  1147 ;;  c               2    2[COMRAM] int 
  1148 ;;  fp              2    4[COMRAM] PTR struct _IO_FILE
  1149 ;;		 -> NULL(0), 
  1150 ;; Auto vars:     Size  Location     Type
  1151 ;;		None
  1152 ;; Return value:  Size  Location     Type
  1153 ;;                  2    2[COMRAM] int 
  1154 ;; Registers used:
  1155 ;;		wreg, fsr1l, fsr1h, fsr2l, fsr2h, status,2, status,0, cstack
  1156 ;; Tracked objects:
  1157 ;;		On entry : 0/0
  1158 ;;		On exit  : 0/0
  1159 ;;		Unchanged: 0/0
  1160 ;; Data sizes:     COMRAM   BANK5   BANK6   BANK7   BANK8   BANK9  BANK10  BANK11  BANK12  BANK13  BANK14  BANK15  BANK1
      +6  BANK17  BANK18  BANK19  BANK20  BANK21  BANK22  BANK23  BANK24  BANK25  BANK26  BANK27  BANK28  BANK29  BANK30  BANK3
      +1  BANK32  BANK33  BANK34  BANK35  BANK36
  1161 ;;      Params:         4       0       0       0       0       0       0       0       0       0       0       0       
      +0       0       0       0       0       0       0       0       0       0       0       0       0       0       0       
      +0       0       0       0       0       0
  1162 ;;      Locals:         0       0       0       0       0       0       0       0       0       0       0       0       
      +0       0       0       0       0       0       0       0       0       0       0       0       0       0       0       
      +0       0       0       0       0       0
  1163 ;;      Temps:          5       0       0       0       0       0       0       0       0       0       0       0       
      +0       0       0       0       0       0       0       0       0       0       0       0       0       0       0       
      +0       0       0       0       0       0
  1164 ;;      Totals:         9       0       0       0       0       0       0       0       0       0       0       0       
      +0       0       0       0       0       0       0       0       0       0       0       0       0       0       0       
      +0       0       0       0       0       0
  1165 ;;Total ram usage:        9 bytes
  1166 ;; Hardware stack levels used: 1
  1167 ;; Hardware stack levels required when called: 2
  1168 ;; This function calls:
  1169 ;;		_putch
  1170 ;; This function is called by:
  1171 ;;		_vfpfcnvrt
  1172 ;; This function uses a non-reentrant model
  1173 ;;
  1174                           
  1175                           	psect	text4
  1176   00278A                     __ptext4:
  1177                           	callstack 0
  1178   00278A                     _fputc:
  1179                           	callstack 121
  1180   00278A  5036               	movf	fputc@fp^(0+1280),w,c
  1181   00278C  1037               	iorwf	(fputc@fp+1)^(0+1280),w,c
  1182   00278E  B4D8               	btfsc	status,2,c
  1183   002790  EFCC  F013         	goto	u1081
  1184   002794  EFCE  F013         	goto	u1080
  1185   002798                     u1081:
  1186   002798  EFD7  F013         	goto	l3439
  1187   00279C                     u1080:
  1188   00279C  5036               	movf	fputc@fp^(0+1280),w,c
  1189   00279E  1037               	iorwf	(fputc@fp+1)^(0+1280),w,c
  1190   0027A0  A4D8               	btfss	status,2,c
  1191   0027A2  EFD5  F013         	goto	u1091
  1192   0027A6  EFD7  F013         	goto	u1090
  1193   0027AA                     u1091:
  1194   0027AA  EFDC  F013         	goto	l3441
  1195   0027AE                     u1090:
  1196   0027AE                     l3439:
  1197   0027AE  5034               	movf	fputc@c^(0+1280),w,c
  1198   0027B0  EC26  F01B         	call	_putch
  1199   0027B4  EF29  F014         	goto	l1773
  1200   0027B8                     l3441:
  1201   0027B8  EE20 F00A          	lfsr	2,10
  1202   0027BC  5036               	movf	fputc@fp^(0+1280),w,c
  1203   0027BE  26D9               	addwf	fsr2l,f,c
  1204   0027C0  5037               	movf	(fputc@fp+1)^(0+1280),w,c
  1205   0027C2  22DA               	addwfc	fsr2h,f,c
  1206   0027C4  50DE               	movf	postinc2,w,c
  1207   0027C6  10DE               	iorwf	postinc2,w,c
  1208   0027C8  B4D8               	btfsc	status,2,c
  1209   0027CA  EFE9  F013         	goto	u1101
  1210   0027CE  EFEB  F013         	goto	u1100
  1211   0027D2                     u1101:
  1212   0027D2  EF06  F014         	goto	l3445
  1213   0027D6                     u1100:
  1214   0027D6  EE20 F00A          	lfsr	2,10
  1215   0027DA  5036               	movf	fputc@fp^(0+1280),w,c
  1216   0027DC  26D9               	addwf	fsr2l,f,c
  1217   0027DE  5037               	movf	(fputc@fp+1)^(0+1280),w,c
  1218   0027E0  22DA               	addwfc	fsr2h,f,c
  1219   0027E2  EE10 F003          	lfsr	1,3
  1220   0027E6  5036               	movf	fputc@fp^(0+1280),w,c
  1221   0027E8  26E1               	addwf	fsr1l,f,c
  1222   0027EA  5037               	movf	(fputc@fp+1)^(0+1280),w,c
  1223   0027EC  22E2               	addwfc	fsr1h,f,c
  1224   0027EE  50DE               	movf	postinc2,w,c
  1225   0027F0  5CE6               	subwf	postinc1,w,c
  1226   0027F2  50E6               	movf	postinc1,w,c
  1227   0027F4  0A80               	xorlw	128
  1228   0027F6  6E3C               	movwf	(??_fputc+4)^(0+1280),c
  1229   0027F8  50DE               	movf	postinc2,w,c
  1230   0027FA  0A80               	xorlw	128
  1231   0027FC  583C               	subwfb	(??_fputc+4)^(0+1280),w,c
  1232   0027FE  B0D8               	btfsc	status,0,c
  1233   002800  EF04  F014         	goto	u1111
  1234   002804  EF06  F014         	goto	u1110
  1235   002808                     u1111:
  1236   002808  EF29  F014         	goto	l1773
  1237   00280C                     u1110:
  1238   00280C                     l3445:
  1239   00280C  EE20 F003          	lfsr	2,3
  1240   002810  5036               	movf	fputc@fp^(0+1280),w,c
  1241   002812  26D9               	addwf	fsr2l,f,c
  1242   002814  5037               	movf	(fputc@fp+1)^(0+1280),w,c
  1243   002816  22DA               	addwfc	fsr2h,f,c
  1244   002818  C4DE F538          	movff	postinc2,??_fputc
  1245   00281C  C4DD F539          	movff	postdec2,??_fputc+1
  1246   002820  C536  F4D9         	movff	fputc@fp,fsr2l
  1247   002824  C537  F4DA         	movff	fputc@fp+1,fsr2h
  1248   002828  C4DE F53A          	movff	postinc2,??_fputc+2
  1249   00282C  C4DD F53B          	movff	postdec2,??_fputc+3
  1250   002830  5038               	movf	??_fputc^(0+1280),w,c
  1251   002832  243A               	addwf	(??_fputc+2)^(0+1280),w,c
  1252   002834  6ED9               	movwf	fsr2l,c
  1253   002836  5039               	movf	(??_fputc+1)^(0+1280),w,c
  1254   002838  203B               	addwfc	(??_fputc+3)^(0+1280),w,c
  1255   00283A  6EDA               	movwf	fsr2h,c
  1256   00283C  C534  F4DF         	movff	fputc@c,indf2
  1257   002840  EE20 F003          	lfsr	2,3
  1258   002844  5036               	movf	fputc@fp^(0+1280),w,c
  1259   002846  26D9               	addwf	fsr2l,f,c
  1260   002848  5037               	movf	(fputc@fp+1)^(0+1280),w,c
  1261   00284A  22DA               	addwfc	fsr2h,f,c
  1262   00284C  2ADE               	incf	postinc2,f,c
  1263   00284E  0E00               	movlw	0
  1264   002850  22DD               	addwfc	postdec2,f,c
  1265   002852                     l1773:
  1266   002852  0012               	return		;funcret
  1267   002854                     __end_of_fputc:
  1268                           	callstack 0
  1269                           
  1270 ;; *************** function _putch *****************
  1271 ;; Defined at:
  1272 ;;		line 180 in file "mcc_generated_files/uart1.c"
  1273 ;; Parameters:    Size  Location     Type
  1274 ;;  txData          1    wreg     unsigned char 
  1275 ;; Auto vars:     Size  Location     Type
  1276 ;;  txData          1    1[COMRAM] unsigned char 
  1277 ;; Return value:  Size  Location     Type
  1278 ;;                  1    wreg      void 
  1279 ;; Registers used:
  1280 ;;		wreg, status,2, cstack
  1281 ;; Tracked objects:
  1282 ;;		On entry : 0/0
  1283 ;;		On exit  : 0/0
  1284 ;;		Unchanged: 0/0
  1285 ;; Data sizes:     COMRAM   BANK5   BANK6   BANK7   BANK8   BANK9  BANK10  BANK11  BANK12  BANK13  BANK14  BANK15  BANK1
      +6  BANK17  BANK18  BANK19  BANK20  BANK21  BANK22  BANK23  BANK24  BANK25  BANK26  BANK27  BANK28  BANK29  BANK30  BANK3
      +1  BANK32  BANK33  BANK34  BANK35  BANK36
  1286 ;;      Params:         0       0       0       0       0       0       0       0       0       0       0       0       
      +0       0       0       0       0       0       0       0       0       0       0       0       0       0       0       
      +0       0       0       0       0       0
  1287 ;;      Locals:         1       0       0       0       0       0       0       0       0       0       0       0       
      +0       0       0       0       0       0       0       0       0       0       0       0       0       0       0       
      +0       0       0       0       0       0
  1288 ;;      Temps:          0       0       0       0       0       0       0       0       0       0       0       0       
      +0       0       0       0       0       0       0       0       0       0       0       0       0       0       0       
      +0       0       0       0       0       0
  1289 ;;      Totals:         1       0       0       0       0       0       0       0       0       0       0       0       
      +0       0       0       0       0       0       0       0       0       0       0       0       0       0       0       
      +0       0       0       0       0       0
  1290 ;;Total ram usage:        1 bytes
  1291 ;; Hardware stack levels used: 1
  1292 ;; Hardware stack levels required when called: 1
  1293 ;; This function calls:
  1294 ;;		_UART1_Write
  1295 ;; This function is called by:
  1296 ;;		_fputc
  1297 ;; This function uses a non-reentrant model
  1298 ;;
  1299                           
  1300                           	psect	text5
  1301   00364C                     __ptext5:
  1302                           	callstack 0
  1303   00364C                     _putch:
  1304                           	callstack 121
  1305                           
  1306                           ;incstack = 0
  1307                           ;putch@txData stored from wreg
  1308   00364C  6E33               	movwf	putch@txData^(0+1280),c
  1309   00364E                     
  1310                           ;mcc_generated_files/uart1.c: 180: void putch(char txData);mcc_generated_files/uart1.c: 
      +                          181: {;mcc_generated_files/uart1.c: 182:     UART1_Write(txData);
  1311   00364E  5033               	movf	putch@txData^(0+1280),w,c
  1312   003650  EC91  F01A         	call	_UART1_Write
  1313   003654  0012               	return		;funcret
  1314   003656                     __end_of_putch:
  1315                           	callstack 0
  1316                           
  1317 ;; *************** function _UART1_Write *****************
  1318 ;; Defined at:
  1319 ;;		line 170 in file "mcc_generated_files/uart1.c"
  1320 ;; Parameters:    Size  Location     Type
  1321 ;;  txData          1    wreg     unsigned char 
  1322 ;; Auto vars:     Size  Location     Type
  1323 ;;  txData          1    0[COMRAM] unsigned char 
  1324 ;; Return value:  Size  Location     Type
  1325 ;;                  1    wreg      void 
  1326 ;; Registers used:
  1327 ;;		wreg
  1328 ;; Tracked objects:
  1329 ;;		On entry : 0/0
  1330 ;;		On exit  : 0/0
  1331 ;;		Unchanged: 0/0
  1332 ;; Data sizes:     COMRAM   BANK5   BANK6   BANK7   BANK8   BANK9  BANK10  BANK11  BANK12  BANK13  BANK14  BANK15  BANK1
      +6  BANK17  BANK18  BANK19  BANK20  BANK21  BANK22  BANK23  BANK24  BANK25  BANK26  BANK27  BANK28  BANK29  BANK30  BANK3
      +1  BANK32  BANK33  BANK34  BANK35  BANK36
  1333 ;;      Params:         0       0       0       0       0       0       0       0       0       0       0       0       
      +0       0       0       0       0       0       0       0       0       0       0       0       0       0       0       
      +0       0       0       0       0       0
  1334 ;;      Locals:         1       0       0       0       0       0       0       0       0       0       0       0       
      +0       0       0       0       0       0       0       0       0       0       0       0       0       0       0       
      +0       0       0       0       0       0
  1335 ;;      Temps:          0       0       0       0       0       0       0       0       0       0       0       0       
      +0       0       0       0       0       0       0       0       0       0       0       0       0       0       0       
      +0       0       0       0       0       0
  1336 ;;      Totals:         1       0       0       0       0       0       0       0       0       0       0       0       
      +0       0       0       0       0       0       0       0       0       0       0       0       0       0       0       
      +0       0       0       0       0       0
  1337 ;;Total ram usage:        1 bytes
  1338 ;; Hardware stack levels used: 1
  1339 ;; This function calls:
  1340 ;;		Nothing
  1341 ;; This function is called by:
  1342 ;;		_putch
  1343 ;; This function uses a non-reentrant model
  1344 ;;
  1345                           
  1346                           	psect	text6
  1347   003522                     __ptext6:
  1348                           	callstack 0
  1349   003522                     _UART1_Write:
  1350                           	callstack 121
  1351                           
  1352                           ;incstack = 0
  1353                           ;UART1_Write@txData stored from wreg
  1354   003522  6E32               	movwf	UART1_Write@txData^(0+1280),c
  1355   003524                     l200:
  1356                           
  1357                           ;mcc_generated_files/uart1.c: 172:     while(0 == PIR4bits.U1TXIF)
  1358   003524  A2B2               	btfss	178,1,c	;volatile
  1359   003526  EF97  F01A         	goto	u431
  1360   00352A  EF99  F01A         	goto	u430
  1361   00352E                     u431:
  1362   00352E  EF92  F01A         	goto	l200
  1363   003532                     u430:
  1364   003532                     
  1365                           ;mcc_generated_files/uart1.c: 176:     U1TXB = txData;
  1366   003532  C532  F2A3         	movff	UART1_Write@txData,675	;volatile
  1367   003536  0012               	return		;funcret
  1368   003538                     __end_of_UART1_Write:
  1369                           	callstack 0
  1370                           
  1371 ;; *************** function _SYSTEM_Initialize *****************
  1372 ;; Defined at:
  1373 ;;		line 50 in file "mcc_generated_files/mcc.c"
  1374 ;; Parameters:    Size  Location     Type
  1375 ;;		None
  1376 ;; Auto vars:     Size  Location     Type
  1377 ;;		None
  1378 ;; Return value:  Size  Location     Type
  1379 ;;                  1    wreg      void 
  1380 ;; Registers used:
  1381 ;;		wreg, status,2, status,0, cstack
  1382 ;; Tracked objects:
  1383 ;;		On entry : 0/0
  1384 ;;		On exit  : 0/0
  1385 ;;		Unchanged: 0/0
  1386 ;; Data sizes:     COMRAM   BANK5   BANK6   BANK7   BANK8   BANK9  BANK10  BANK11  BANK12  BANK13  BANK14  BANK15  BANK1
      +6  BANK17  BANK18  BANK19  BANK20  BANK21  BANK22  BANK23  BANK24  BANK25  BANK26  BANK27  BANK28  BANK29  BANK30  BANK3
      +1  BANK32  BANK33  BANK34  BANK35  BANK36
  1387 ;;      Params:         0       0       0       0       0       0       0       0       0       0       0       0       
      +0       0       0       0       0       0       0       0       0       0       0       0       0       0       0       
      +0       0       0       0       0       0
  1388 ;;      Locals:         0       0       0       0       0       0       0       0       0       0       0       0       
      +0       0       0       0       0       0       0       0       0       0       0       0       0       0       0       
      +0       0       0       0       0       0
  1389 ;;      Temps:          0       0       0       0       0       0       0       0       0       0       0       0       
      +0       0       0       0       0       0       0       0       0       0       0       0       0       0       0       
      +0       0       0       0       0       0
  1390 ;;      Totals:         0       0       0       0       0       0       0       0       0       0       0       0       
      +0       0       0       0       0       0       0       0       0       0       0       0       0       0       0       
      +0       0       0       0       0       0
  1391 ;;Total ram usage:        0 bytes
  1392 ;; Hardware stack levels used: 1
  1393 ;; Hardware stack levels required when called: 2
  1394 ;; This function calls:
  1395 ;;		_ADCC_Initialize
  1396 ;;		_I2C1_Initialize
  1397 ;;		_OSCILLATOR_Initialize
  1398 ;;		_PIN_MANAGER_Initialize
  1399 ;;		_PMD_Initialize
  1400 ;;		_UART1_Initialize
  1401 ;; This function is called by:
  1402 ;;		_main
  1403 ;; This function uses a non-reentrant model
  1404 ;;
  1405                           
  1406                           	psect	text7
  1407   003508                     __ptext7:
  1408                           	callstack 0
  1409   003508                     _SYSTEM_Initialize:
  1410                           	callstack 124
  1411   003508                     
  1412                           ;mcc_generated_files/mcc.c: 52:     PMD_Initialize();
  1413   003508  EC0A  F01A         	call	_PMD_Initialize	;wreg free
  1414                           
  1415                           ;mcc_generated_files/mcc.c: 53:     I2C1_Initialize();
  1416   00350C  EC1C  F01A         	call	_I2C1_Initialize	;wreg free
  1417                           
  1418                           ;mcc_generated_files/mcc.c: 54:     PIN_MANAGER_Initialize();
  1419   003510  EC8D  F014         	call	_PIN_MANAGER_Initialize	;wreg free
  1420                           
  1421                           ;mcc_generated_files/mcc.c: 55:     OSCILLATOR_Initialize();
  1422   003514  EC3E  F01A         	call	_OSCILLATOR_Initialize	;wreg free
  1423                           
  1424                           ;mcc_generated_files/mcc.c: 56:     ADCC_Initialize();
  1425   003518  ECF1  F017         	call	_ADCC_Initialize	;wreg free
  1426   00351C                     
  1427                           ;mcc_generated_files/mcc.c: 57:     UART1_Initialize();
  1428   00351C  EC12  F017         	call	_UART1_Initialize	;wreg free
  1429   003520  0012               	return		;funcret
  1430   003522                     __end_of_SYSTEM_Initialize:
  1431                           	callstack 0
  1432                           
  1433 ;; *************** function _UART1_Initialize *****************
  1434 ;; Defined at:
  1435 ;;		line 66 in file "mcc_generated_files/uart1.c"
  1436 ;; Parameters:    Size  Location     Type
  1437 ;;		None
  1438 ;; Auto vars:     Size  Location     Type
  1439 ;;		None
  1440 ;; Return value:  Size  Location     Type
  1441 ;;                  1    wreg      void 
  1442 ;; Registers used:
  1443 ;;		wreg, status,2, status,0, cstack
  1444 ;; Tracked objects:
  1445 ;;		On entry : 0/0
  1446 ;;		On exit  : 0/0
  1447 ;;		Unchanged: 0/0
  1448 ;; Data sizes:     COMRAM   BANK5   BANK6   BANK7   BANK8   BANK9  BANK10  BANK11  BANK12  BANK13  BANK14  BANK15  BANK1
      +6  BANK17  BANK18  BANK19  BANK20  BANK21  BANK22  BANK23  BANK24  BANK25  BANK26  BANK27  BANK28  BANK29  BANK30  BANK3
      +1  BANK32  BANK33  BANK34  BANK35  BANK36
  1449 ;;      Params:         0       0       0       0       0       0       0       0       0       0       0       0       
      +0       0       0       0       0       0       0       0       0       0       0       0       0       0       0       
      +0       0       0       0       0       0
  1450 ;;      Locals:         0       0       0       0       0       0       0       0       0       0       0       0       
      +0       0       0       0       0       0       0       0       0       0       0       0       0       0       0       
      +0       0       0       0       0       0
  1451 ;;      Temps:          0       0       0       0       0       0       0       0       0       0       0       0       
      +0       0       0       0       0       0       0       0       0       0       0       0       0       0       0       
      +0       0       0       0       0       0
  1452 ;;      Totals:         0       0       0       0       0       0       0       0       0       0       0       0       
      +0       0       0       0       0       0       0       0       0       0       0       0       0       0       0       
      +0       0       0       0       0       0
  1453 ;;Total ram usage:        0 bytes
  1454 ;; Hardware stack levels used: 1
  1455 ;; Hardware stack levels required when called: 1
  1456 ;; This function calls:
  1457 ;;		_UART1_SetErrorHandler
  1458 ;;		_UART1_SetFramingErrorHandler
  1459 ;;		_UART1_SetOverrunErrorHandler
  1460 ;; This function is called by:
  1461 ;;		_SYSTEM_Initialize
  1462 ;; This function uses a non-reentrant model
  1463 ;;
  1464                           
  1465                           	psect	text8
  1466   002E24                     __ptext8:
  1467                           	callstack 0
  1468   002E24                     _UART1_Initialize:
  1469                           	callstack 124
  1470   002E24                     
  1471                           ;mcc_generated_files/uart1.c: 73:     U1P1L = 0x00;
  1472   002E24  0E00               	movlw	0
  1473   002E26  0102               	movlb	2	; () banked
  1474   002E28  6FA5               	movwf	165,b	;volatile
  1475                           
  1476                           ;mcc_generated_files/uart1.c: 76:     U1P1H = 0x00;
  1477   002E2A  0E00               	movlw	0
  1478   002E2C  6FA6               	movwf	166,b	;volatile
  1479                           
  1480                           ;mcc_generated_files/uart1.c: 79:     U1P2L = 0x00;
  1481   002E2E  0E00               	movlw	0
  1482   002E30  6FA7               	movwf	167,b	;volatile
  1483                           
  1484                           ;mcc_generated_files/uart1.c: 82:     U1P2H = 0x00;
  1485   002E32  0E00               	movlw	0
  1486   002E34  6FA8               	movwf	168,b	;volatile
  1487                           
  1488                           ;mcc_generated_files/uart1.c: 85:     U1P3L = 0x00;
  1489   002E36  0E00               	movlw	0
  1490   002E38  6FA9               	movwf	169,b	;volatile
  1491                           
  1492                           ;mcc_generated_files/uart1.c: 88:     U1P3H = 0x00;
  1493   002E3A  0E00               	movlw	0
  1494   002E3C  6FAA               	movwf	170,b	;volatile
  1495                           
  1496                           ;mcc_generated_files/uart1.c: 91:     U1CON0 = 0xB0;
  1497   002E3E  0EB0               	movlw	176
  1498   002E40  6FAB               	movwf	171,b	;volatile
  1499                           
  1500                           ;mcc_generated_files/uart1.c: 94:     U1CON1 = 0x80;
  1501   002E42  0E80               	movlw	128
  1502   002E44  6FAC               	movwf	172,b	;volatile
  1503                           
  1504                           ;mcc_generated_files/uart1.c: 97:     U1CON2 = 0x00;
  1505   002E46  0E00               	movlw	0
  1506   002E48  6FAD               	movwf	173,b	;volatile
  1507                           
  1508                           ;mcc_generated_files/uart1.c: 100:     U1BRGL = 0x82;
  1509   002E4A  0E82               	movlw	130
  1510   002E4C  6FAE               	movwf	174,b	;volatile
  1511                           
  1512                           ;mcc_generated_files/uart1.c: 103:     U1BRGH = 0x06;
  1513   002E4E  0E06               	movlw	6
  1514   002E50  6FAF               	movwf	175,b	;volatile
  1515                           
  1516                           ;mcc_generated_files/uart1.c: 106:     U1FIFO = 0x00;
  1517   002E52  0E00               	movlw	0
  1518   002E54  6FB0               	movwf	176,b	;volatile
  1519                           
  1520                           ;mcc_generated_files/uart1.c: 109:     U1UIR = 0x00;
  1521   002E56  0E00               	movlw	0
  1522   002E58  6FB1               	movwf	177,b	;volatile
  1523                           
  1524                           ;mcc_generated_files/uart1.c: 112:     U1ERRIR = 0x00;
  1525   002E5A  0E00               	movlw	0
  1526   002E5C  6FB2               	movwf	178,b	;volatile
  1527                           
  1528                           ;mcc_generated_files/uart1.c: 115:     U1ERRIE = 0x00;
  1529   002E5E  0E00               	movlw	0
  1530   002E60  6FB3               	movwf	179,b	;volatile
  1531   002E62                     
  1532                           ; BSR set to: 2
  1533                           ;mcc_generated_files/uart1.c: 118:     UART1_SetFramingErrorHandler(UART1_DefaultFraming
      +                          ErrorHandler);
  1534   002E62  0E00               	movlw	0
  1535   002E64  6E32               	movwf	UART1_SetFramingErrorHandler@interruptHandler^(0+1280),c
  1536   002E66  0E00               	movlw	0
  1537   002E68  6E33               	movwf	(UART1_SetFramingErrorHandler@interruptHandler+1)^(0+1280),c
  1538   002E6A  0E00               	movlw	0
  1539   002E6C  6E34               	movwf	(UART1_SetFramingErrorHandler@interruptHandler+2)^(0+1280),c
  1540   002E6E  ECF7  F01A         	call	_UART1_SetFramingErrorHandler	;wreg free
  1541   002E72                     
  1542                           ;mcc_generated_files/uart1.c: 119:     UART1_SetOverrunErrorHandler(UART1_DefaultOverrun
      +                          ErrorHandler);
  1543   002E72  0E00               	movlw	0
  1544   002E74  6E32               	movwf	UART1_SetOverrunErrorHandler@interruptHandler^(0+1280),c
  1545   002E76  0E00               	movlw	0
  1546   002E78  6E33               	movwf	(UART1_SetOverrunErrorHandler@interruptHandler+1)^(0+1280),c
  1547   002E7A  0E00               	movlw	0
  1548   002E7C  6E34               	movwf	(UART1_SetOverrunErrorHandler@interruptHandler+2)^(0+1280),c
  1549   002E7E  ECF0  F01A         	call	_UART1_SetOverrunErrorHandler	;wreg free
  1550   002E82                     
  1551                           ;mcc_generated_files/uart1.c: 120:     UART1_SetErrorHandler(UART1_DefaultErrorHandler);
  1552   002E82  0E00               	movlw	0
  1553   002E84  6E32               	movwf	UART1_SetErrorHandler@interruptHandler^(0+1280),c
  1554   002E86  0E00               	movlw	0
  1555   002E88  6E33               	movwf	(UART1_SetErrorHandler@interruptHandler+1)^(0+1280),c
  1556   002E8A  0E00               	movlw	0
  1557   002E8C  6E34               	movwf	(UART1_SetErrorHandler@interruptHandler+2)^(0+1280),c
  1558   002E8E  ECFE  F01A         	call	_UART1_SetErrorHandler	;wreg free
  1559   002E92                     
  1560                           ;mcc_generated_files/uart1.c: 122:     uart1RxLastError.status = 0;
  1561   002E92  0E00               	movlw	0
  1562   002E94  6E31               	movwf	_uart1RxLastError^(0+1280),c	;volatile
  1563   002E96  0012               	return		;funcret
  1564   002E98                     __end_of_UART1_Initialize:
  1565                           	callstack 0
  1566                           
  1567 ;; *************** function _UART1_SetOverrunErrorHandler *****************
  1568 ;; Defined at:
  1569 ;;		line 200 in file "mcc_generated_files/uart1.c"
  1570 ;; Parameters:    Size  Location     Type
  1571 ;;  interruptHan    3    0[COMRAM] PTR FTN()void 
  1572 ;;		 -> UART1_DefaultOverrunErrorHandler(1), 
  1573 ;; Auto vars:     Size  Location     Type
  1574 ;;		None
  1575 ;; Return value:  Size  Location     Type
  1576 ;;                  1    wreg      void 
  1577 ;; Registers used:
  1578 ;;		wreg, status,2, status,0
  1579 ;; Tracked objects:
  1580 ;;		On entry : 0/0
  1581 ;;		On exit  : 0/0
  1582 ;;		Unchanged: 0/0
  1583 ;; Data sizes:     COMRAM   BANK5   BANK6   BANK7   BANK8   BANK9  BANK10  BANK11  BANK12  BANK13  BANK14  BANK15  BANK1
      +6  BANK17  BANK18  BANK19  BANK20  BANK21  BANK22  BANK23  BANK24  BANK25  BANK26  BANK27  BANK28  BANK29  BANK30  BANK3
      +1  BANK32  BANK33  BANK34  BANK35  BANK36
  1584 ;;      Params:         3       0       0       0       0       0       0       0       0       0       0       0       
      +0       0       0       0       0       0       0       0       0       0       0       0       0       0       0       
      +0       0       0       0       0       0
  1585 ;;      Locals:         0       0       0       0       0       0       0       0       0       0       0       0       
      +0       0       0       0       0       0       0       0       0       0       0       0       0       0       0       
      +0       0       0       0       0       0
  1586 ;;      Temps:          0       0       0       0       0       0       0       0       0       0       0       0       
      +0       0       0       0       0       0       0       0       0       0       0       0       0       0       0       
      +0       0       0       0       0       0
  1587 ;;      Totals:         3       0       0       0       0       0       0       0       0       0       0       0       
      +0       0       0       0       0       0       0       0       0       0       0       0       0       0       0       
      +0       0       0       0       0       0
  1588 ;;Total ram usage:        3 bytes
  1589 ;; Hardware stack levels used: 1
  1590 ;; This function calls:
  1591 ;;		Nothing
  1592 ;; This function is called by:
  1593 ;;		_UART1_Initialize
  1594 ;; This function uses a non-reentrant model
  1595 ;;
  1596                           
  1597                           	psect	text9
  1598   0035E0                     __ptext9:
  1599                           	callstack 0
  1600   0035E0                     _UART1_SetOverrunErrorHandler:
  1601                           	callstack 124
  1602   0035E0                     
  1603                           ;mcc_generated_files/uart1.c: 201:     UART1_OverrunErrorHandler = interruptHandler;
  1604   0035E0  C532  F557         	movff	UART1_SetOverrunErrorHandler@interruptHandler,_UART1_OverrunErrorHandler
  1605   0035E4  C533  F558         	movff	UART1_SetOverrunErrorHandler@interruptHandler+1,_UART1_OverrunErrorHandler+1
  1606   0035E8  C534  F559         	movff	UART1_SetOverrunErrorHandler@interruptHandler+2,_UART1_OverrunErrorHandler+2
  1607   0035EC  0012               	return		;funcret
  1608   0035EE                     __end_of_UART1_SetOverrunErrorHandler:
  1609                           	callstack 0
  1610                           
  1611 ;; *************** function _UART1_SetFramingErrorHandler *****************
  1612 ;; Defined at:
  1613 ;;		line 196 in file "mcc_generated_files/uart1.c"
  1614 ;; Parameters:    Size  Location     Type
  1615 ;;  interruptHan    3    0[COMRAM] PTR FTN()void 
  1616 ;;		 -> UART1_DefaultFramingErrorHandler(1), 
  1617 ;; Auto vars:     Size  Location     Type
  1618 ;;		None
  1619 ;; Return value:  Size  Location     Type
  1620 ;;                  1    wreg      void 
  1621 ;; Registers used:
  1622 ;;		wreg, status,2, status,0
  1623 ;; Tracked objects:
  1624 ;;		On entry : 0/0
  1625 ;;		On exit  : 0/0
  1626 ;;		Unchanged: 0/0
  1627 ;; Data sizes:     COMRAM   BANK5   BANK6   BANK7   BANK8   BANK9  BANK10  BANK11  BANK12  BANK13  BANK14  BANK15  BANK1
      +6  BANK17  BANK18  BANK19  BANK20  BANK21  BANK22  BANK23  BANK24  BANK25  BANK26  BANK27  BANK28  BANK29  BANK30  BANK3
      +1  BANK32  BANK33  BANK34  BANK35  BANK36
  1628 ;;      Params:         3       0       0       0       0       0       0       0       0       0       0       0       
      +0       0       0       0       0       0       0       0       0       0       0       0       0       0       0       
      +0       0       0       0       0       0
  1629 ;;      Locals:         0       0       0       0       0       0       0       0       0       0       0       0       
      +0       0       0       0       0       0       0       0       0       0       0       0       0       0       0       
      +0       0       0       0       0       0
  1630 ;;      Temps:          0       0       0       0       0       0       0       0       0       0       0       0       
      +0       0       0       0       0       0       0       0       0       0       0       0       0       0       0       
      +0       0       0       0       0       0
  1631 ;;      Totals:         3       0       0       0       0       0       0       0       0       0       0       0       
      +0       0       0       0       0       0       0       0       0       0       0       0       0       0       0       
      +0       0       0       0       0       0
  1632 ;;Total ram usage:        3 bytes
  1633 ;; Hardware stack levels used: 1
  1634 ;; This function calls:
  1635 ;;		Nothing
  1636 ;; This function is called by:
  1637 ;;		_UART1_Initialize
  1638 ;; This function uses a non-reentrant model
  1639 ;;
  1640                           
  1641                           	psect	text10
  1642   0035EE                     __ptext10:
  1643                           	callstack 0
  1644   0035EE                     _UART1_SetFramingErrorHandler:
  1645                           	callstack 124
  1646   0035EE                     
  1647                           ;mcc_generated_files/uart1.c: 197:     UART1_FramingErrorHandler = interruptHandler;
  1648   0035EE  C532  F55A         	movff	UART1_SetFramingErrorHandler@interruptHandler,_UART1_FramingErrorHandler
  1649   0035F2  C533  F55B         	movff	UART1_SetFramingErrorHandler@interruptHandler+1,_UART1_FramingErrorHandler+1
  1650   0035F6  C534  F55C         	movff	UART1_SetFramingErrorHandler@interruptHandler+2,_UART1_FramingErrorHandler+2
  1651   0035FA  0012               	return		;funcret
  1652   0035FC                     __end_of_UART1_SetFramingErrorHandler:
  1653                           	callstack 0
  1654                           
  1655 ;; *************** function _UART1_SetErrorHandler *****************
  1656 ;; Defined at:
  1657 ;;		line 204 in file "mcc_generated_files/uart1.c"
  1658 ;; Parameters:    Size  Location     Type
  1659 ;;  interruptHan    3    0[COMRAM] PTR FTN()void 
  1660 ;;		 -> UART1_DefaultErrorHandler(1), 
  1661 ;; Auto vars:     Size  Location     Type
  1662 ;;		None
  1663 ;; Return value:  Size  Location     Type
  1664 ;;                  1    wreg      void 
  1665 ;; Registers used:
  1666 ;;		wreg, status,2, status,0
  1667 ;; Tracked objects:
  1668 ;;		On entry : 0/0
  1669 ;;		On exit  : 0/0
  1670 ;;		Unchanged: 0/0
  1671 ;; Data sizes:     COMRAM   BANK5   BANK6   BANK7   BANK8   BANK9  BANK10  BANK11  BANK12  BANK13  BANK14  BANK15  BANK1
      +6  BANK17  BANK18  BANK19  BANK20  BANK21  BANK22  BANK23  BANK24  BANK25  BANK26  BANK27  BANK28  BANK29  BANK30  BANK3
      +1  BANK32  BANK33  BANK34  BANK35  BANK36
  1672 ;;      Params:         3       0       0       0       0       0       0       0       0       0       0       0       
      +0       0       0       0       0       0       0       0       0       0       0       0       0       0       0       
      +0       0       0       0       0       0
  1673 ;;      Locals:         0       0       0       0       0       0       0       0       0       0       0       0       
      +0       0       0       0       0       0       0       0       0       0       0       0       0       0       0       
      +0       0       0       0       0       0
  1674 ;;      Temps:          0       0       0       0       0       0       0       0       0       0       0       0       
      +0       0       0       0       0       0       0       0       0       0       0       0       0       0       0       
      +0       0       0       0       0       0
  1675 ;;      Totals:         3       0       0       0       0       0       0       0       0       0       0       0       
      +0       0       0       0       0       0       0       0       0       0       0       0       0       0       0       
      +0       0       0       0       0       0
  1676 ;;Total ram usage:        3 bytes
  1677 ;; Hardware stack levels used: 1
  1678 ;; This function calls:
  1679 ;;		Nothing
  1680 ;; This function is called by:
  1681 ;;		_UART1_Initialize
  1682 ;; This function uses a non-reentrant model
  1683 ;;
  1684                           
  1685                           	psect	text11
  1686   0035FC                     __ptext11:
  1687                           	callstack 0
  1688   0035FC                     _UART1_SetErrorHandler:
  1689                           	callstack 124
  1690   0035FC                     
  1691                           ;mcc_generated_files/uart1.c: 205:     UART1_ErrorHandler = interruptHandler;
  1692   0035FC  C532  F580         	movff	UART1_SetErrorHandler@interruptHandler,_UART1_ErrorHandler
  1693   003600  C533  F581         	movff	UART1_SetErrorHandler@interruptHandler+1,_UART1_ErrorHandler+1
  1694   003604  C534  F582         	movff	UART1_SetErrorHandler@interruptHandler+2,_UART1_ErrorHandler+2
  1695   003608  0012               	return		;funcret
  1696   00360A                     __end_of_UART1_SetErrorHandler:
  1697                           	callstack 0
  1698                           
  1699 ;; *************** function _PMD_Initialize *****************
  1700 ;; Defined at:
  1701 ;;		line 76 in file "mcc_generated_files/mcc.c"
  1702 ;; Parameters:    Size  Location     Type
  1703 ;;		None
  1704 ;; Auto vars:     Size  Location     Type
  1705 ;;		None
  1706 ;; Return value:  Size  Location     Type
  1707 ;;                  1    wreg      void 
  1708 ;; Registers used:
  1709 ;;		wreg, status,2
  1710 ;; Tracked objects:
  1711 ;;		On entry : 0/0
  1712 ;;		On exit  : 0/0
  1713 ;;		Unchanged: 0/0
  1714 ;; Data sizes:     COMRAM   BANK5   BANK6   BANK7   BANK8   BANK9  BANK10  BANK11  BANK12  BANK13  BANK14  BANK15  BANK1
      +6  BANK17  BANK18  BANK19  BANK20  BANK21  BANK22  BANK23  BANK24  BANK25  BANK26  BANK27  BANK28  BANK29  BANK30  BANK3
      +1  BANK32  BANK33  BANK34  BANK35  BANK36
  1715 ;;      Params:         0       0       0       0       0       0       0       0       0       0       0       0       
      +0       0       0       0       0       0       0       0       0       0       0       0       0       0       0       
      +0       0       0       0       0       0
  1716 ;;      Locals:         0       0       0       0       0       0       0       0       0       0       0       0       
      +0       0       0       0       0       0       0       0       0       0       0       0       0       0       0       
      +0       0       0       0       0       0
  1717 ;;      Temps:          0       0       0       0       0       0       0       0       0       0       0       0       
      +0       0       0       0       0       0       0       0       0       0       0       0       0       0       0       
      +0       0       0       0       0       0
  1718 ;;      Totals:         0       0       0       0       0       0       0       0       0       0       0       0       
      +0       0       0       0       0       0       0       0       0       0       0       0       0       0       0       
      +0       0       0       0       0       0
  1719 ;;Total ram usage:        0 bytes
  1720 ;; Hardware stack levels used: 1
  1721 ;; This function calls:
  1722 ;;		Nothing
  1723 ;; This function is called by:
  1724 ;;		_SYSTEM_Initialize
  1725 ;; This function uses a non-reentrant model
  1726 ;;
  1727                           
  1728                           	psect	text12
  1729   003414                     __ptext12:
  1730                           	callstack 0
  1731   003414                     _PMD_Initialize:
  1732                           	callstack 125
  1733   003414                     
  1734                           ;mcc_generated_files/mcc.c: 79:     PMD0 = 0x00;
  1735   003414  0E00               	movlw	0
  1736   003416  0100               	movlb	0	; () banked
  1737   003418  6F60               	movwf	96,b	;volatile
  1738                           
  1739                           ;mcc_generated_files/mcc.c: 81:     PMD1 = 0x00;
  1740   00341A  0E00               	movlw	0
  1741   00341C  6F61               	movwf	97,b	;volatile
  1742                           
  1743                           ;mcc_generated_files/mcc.c: 83:     PMD3 = 0x00;
  1744   00341E  0E00               	movlw	0
  1745   003420  6F63               	movwf	99,b	;volatile
  1746                           
  1747                           ;mcc_generated_files/mcc.c: 85:     PMD4 = 0x00;
  1748   003422  0E00               	movlw	0
  1749   003424  6F64               	movwf	100,b	;volatile
  1750                           
  1751                           ;mcc_generated_files/mcc.c: 87:     PMD5 = 0x00;
  1752   003426  0E00               	movlw	0
  1753   003428  6F65               	movwf	101,b	;volatile
  1754                           
  1755                           ;mcc_generated_files/mcc.c: 89:     PMD6 = 0x00;
  1756   00342A  0E00               	movlw	0
  1757   00342C  6F66               	movwf	102,b	;volatile
  1758                           
  1759                           ;mcc_generated_files/mcc.c: 91:     PMD7 = 0x00;
  1760   00342E  0E00               	movlw	0
  1761   003430  6F67               	movwf	103,b	;volatile
  1762                           
  1763                           ;mcc_generated_files/mcc.c: 93:     PMD8 = 0x00;
  1764   003432  0E00               	movlw	0
  1765   003434  6F68               	movwf	104,b	;volatile
  1766   003436                     
  1767                           ; BSR set to: 0
  1768   003436  0012               	return		;funcret
  1769   003438                     __end_of_PMD_Initialize:
  1770                           	callstack 0
  1771                           
  1772 ;; *************** function _PIN_MANAGER_Initialize *****************
  1773 ;; Defined at:
  1774 ;;		line 55 in file "mcc_generated_files/pin_manager.c"
  1775 ;; Parameters:    Size  Location     Type
  1776 ;;		None
  1777 ;; Auto vars:     Size  Location     Type
  1778 ;;		None
  1779 ;; Return value:  Size  Location     Type
  1780 ;;                  1    wreg      void 
  1781 ;; Registers used:
  1782 ;;		wreg, status,2
  1783 ;; Tracked objects:
  1784 ;;		On entry : 0/0
  1785 ;;		On exit  : 0/0
  1786 ;;		Unchanged: 0/0
  1787 ;; Data sizes:     COMRAM   BANK5   BANK6   BANK7   BANK8   BANK9  BANK10  BANK11  BANK12  BANK13  BANK14  BANK15  BANK1
      +6  BANK17  BANK18  BANK19  BANK20  BANK21  BANK22  BANK23  BANK24  BANK25  BANK26  BANK27  BANK28  BANK29  BANK30  BANK3
      +1  BANK32  BANK33  BANK34  BANK35  BANK36
  1788 ;;      Params:         0       0       0       0       0       0       0       0       0       0       0       0       
      +0       0       0       0       0       0       0       0       0       0       0       0       0       0       0       
      +0       0       0       0       0       0
  1789 ;;      Locals:         0       0       0       0       0       0       0       0       0       0       0       0       
      +0       0       0       0       0       0       0       0       0       0       0       0       0       0       0       
      +0       0       0       0       0       0
  1790 ;;      Temps:          0       0       0       0       0       0       0       0       0       0       0       0       
      +0       0       0       0       0       0       0       0       0       0       0       0       0       0       0       
      +0       0       0       0       0       0
  1791 ;;      Totals:         0       0       0       0       0       0       0       0       0       0       0       0       
      +0       0       0       0       0       0       0       0       0       0       0       0       0       0       0       
      +0       0       0       0       0       0
  1792 ;;Total ram usage:        0 bytes
  1793 ;; Hardware stack levels used: 1
  1794 ;; This function calls:
  1795 ;;		Nothing
  1796 ;; This function is called by:
  1797 ;;		_SYSTEM_Initialize
  1798 ;; This function uses a non-reentrant model
  1799 ;;
  1800                           
  1801                           	psect	text13
  1802   00291A                     __ptext13:
  1803                           	callstack 0
  1804   00291A                     _PIN_MANAGER_Initialize:
  1805                           	callstack 125
  1806   00291A                     
  1807                           ;mcc_generated_files/pin_manager.c: 60:     LATE = 0x00;
  1808   00291A  0E00               	movlw	0
  1809   00291C  6EC2               	movwf	194,c	;volatile
  1810                           
  1811                           ;mcc_generated_files/pin_manager.c: 61:     LATD = 0x00;
  1812   00291E  0E00               	movlw	0
  1813   002920  6EC1               	movwf	193,c	;volatile
  1814                           
  1815                           ;mcc_generated_files/pin_manager.c: 62:     LATA = 0x00;
  1816   002922  0E00               	movlw	0
  1817   002924  6EBE               	movwf	190,c	;volatile
  1818                           
  1819                           ;mcc_generated_files/pin_manager.c: 63:     LATF = 0x00;
  1820   002926  0E00               	movlw	0
  1821   002928  6EC3               	movwf	195,c	;volatile
  1822                           
  1823                           ;mcc_generated_files/pin_manager.c: 64:     LATB = 0x00;
  1824   00292A  0E00               	movlw	0
  1825   00292C  6EBF               	movwf	191,c	;volatile
  1826                           
  1827                           ;mcc_generated_files/pin_manager.c: 65:     LATC = 0x00;
  1828   00292E  0E00               	movlw	0
  1829   002930  6EC0               	movwf	192,c	;volatile
  1830                           
  1831                           ;mcc_generated_files/pin_manager.c: 70:     TRISE = 0x07;
  1832   002932  0E07               	movlw	7
  1833   002934  6ECA               	movwf	202,c	;volatile
  1834                           
  1835                           ;mcc_generated_files/pin_manager.c: 71:     TRISF = 0xF5;
  1836   002936  0EF5               	movlw	245
  1837   002938  6ECB               	movwf	203,c	;volatile
  1838   00293A                     
  1839                           ;mcc_generated_files/pin_manager.c: 72:     TRISA = 0xFF;
  1840   00293A  68C6               	setf	198,c	;volatile
  1841   00293C                     
  1842                           ;mcc_generated_files/pin_manager.c: 73:     TRISB = 0xFF;
  1843   00293C  68C7               	setf	199,c	;volatile
  1844                           
  1845                           ;mcc_generated_files/pin_manager.c: 74:     TRISC = 0xE7;
  1846   00293E  0EE7               	movlw	231
  1847   002940  6EC8               	movwf	200,c	;volatile
  1848   002942                     
  1849                           ;mcc_generated_files/pin_manager.c: 75:     TRISD = 0xFF;
  1850   002942  68C9               	setf	201,c	;volatile
  1851   002944                     
  1852                           ;mcc_generated_files/pin_manager.c: 80:     ANSELD = 0xFF;
  1853   002944  0104               	movlb	4	; () banked
  1854   002946  6918               	setf	24,b	;volatile
  1855                           
  1856                           ;mcc_generated_files/pin_manager.c: 81:     ANSELC = 0xE7;
  1857   002948  0EE7               	movlw	231
  1858   00294A  6F10               	movwf	16,b	;volatile
  1859   00294C                     
  1860                           ; BSR set to: 4
  1861                           ;mcc_generated_files/pin_manager.c: 82:     ANSELB = 0xFF;
  1862   00294C  6908               	setf	8,b	;volatile
  1863                           
  1864                           ;mcc_generated_files/pin_manager.c: 83:     ANSELE = 0x07;
  1865   00294E  0E07               	movlw	7
  1866   002950  6F20               	movwf	32,b	;volatile
  1867                           
  1868                           ;mcc_generated_files/pin_manager.c: 84:     ANSELF = 0xFE;
  1869   002952  0EFE               	movlw	254
  1870   002954  6F28               	movwf	40,b	;volatile
  1871   002956                     
  1872                           ; BSR set to: 4
  1873                           ;mcc_generated_files/pin_manager.c: 85:     ANSELA = 0xFF;
  1874   002956  6900               	setf	0,b	;volatile
  1875                           
  1876                           ;mcc_generated_files/pin_manager.c: 90:     WPUD = 0x00;
  1877   002958  0E00               	movlw	0
  1878   00295A  6F19               	movwf	25,b	;volatile
  1879                           
  1880                           ;mcc_generated_files/pin_manager.c: 91:     WPUF = 0x00;
  1881   00295C  0E00               	movlw	0
  1882   00295E  6F29               	movwf	41,b	;volatile
  1883                           
  1884                           ;mcc_generated_files/pin_manager.c: 92:     WPUE = 0x00;
  1885   002960  0E00               	movlw	0
  1886   002962  6F21               	movwf	33,b	;volatile
  1887                           
  1888                           ;mcc_generated_files/pin_manager.c: 93:     WPUB = 0x00;
  1889   002964  0E00               	movlw	0
  1890   002966  6F09               	movwf	9,b	;volatile
  1891                           
  1892                           ;mcc_generated_files/pin_manager.c: 94:     WPUA = 0x00;
  1893   002968  0E00               	movlw	0
  1894   00296A  6F01               	movwf	1,b	;volatile
  1895                           
  1896                           ;mcc_generated_files/pin_manager.c: 95:     WPUC = 0x00;
  1897   00296C  0E00               	movlw	0
  1898   00296E  6F11               	movwf	17,b	;volatile
  1899                           
  1900                           ;mcc_generated_files/pin_manager.c: 100:     RB1I2C = 0x00;
  1901   002970  0E00               	movlw	0
  1902   002972  0102               	movlb	2	; () banked
  1903   002974  6F89               	movwf	137,b	;volatile
  1904                           
  1905                           ;mcc_generated_files/pin_manager.c: 101:     RB2I2C = 0x00;
  1906   002976  0E00               	movlw	0
  1907   002978  6F88               	movwf	136,b	;volatile
  1908                           
  1909                           ;mcc_generated_files/pin_manager.c: 102:     RC3I2C = 0x00;
  1910   00297A  0E00               	movlw	0
  1911   00297C  6F87               	movwf	135,b	;volatile
  1912                           
  1913                           ;mcc_generated_files/pin_manager.c: 103:     RC4I2C = 0x00;
  1914   00297E  0E00               	movlw	0
  1915   002980  6F86               	movwf	134,b	;volatile
  1916                           
  1917                           ;mcc_generated_files/pin_manager.c: 108:     ODCONE = 0x00;
  1918   002982  0E00               	movlw	0
  1919   002984  0104               	movlb	4	; () banked
  1920   002986  6F22               	movwf	34,b	;volatile
  1921                           
  1922                           ;mcc_generated_files/pin_manager.c: 109:     ODCONF = 0x00;
  1923   002988  0E00               	movlw	0
  1924   00298A  6F2A               	movwf	42,b	;volatile
  1925                           
  1926                           ;mcc_generated_files/pin_manager.c: 110:     ODCONA = 0x00;
  1927   00298C  0E00               	movlw	0
  1928   00298E  6F02               	movwf	2,b	;volatile
  1929                           
  1930                           ;mcc_generated_files/pin_manager.c: 111:     ODCONB = 0x00;
  1931   002990  0E00               	movlw	0
  1932   002992  6F0A               	movwf	10,b	;volatile
  1933                           
  1934                           ;mcc_generated_files/pin_manager.c: 112:     ODCONC = 0x18;
  1935   002994  0E18               	movlw	24
  1936   002996  6F12               	movwf	18,b	;volatile
  1937                           
  1938                           ;mcc_generated_files/pin_manager.c: 113:     ODCOND = 0x00;
  1939   002998  0E00               	movlw	0
  1940   00299A  6F1A               	movwf	26,b	;volatile
  1941   00299C                     
  1942                           ; BSR set to: 4
  1943                           ;mcc_generated_files/pin_manager.c: 118:     SLRCONA = 0xFF;
  1944   00299C  6903               	setf	3,b	;volatile
  1945   00299E                     
  1946                           ; BSR set to: 4
  1947                           ;mcc_generated_files/pin_manager.c: 119:     SLRCONB = 0xFF;
  1948   00299E  690B               	setf	11,b	;volatile
  1949   0029A0                     
  1950                           ; BSR set to: 4
  1951                           ;mcc_generated_files/pin_manager.c: 120:     SLRCONC = 0xFF;
  1952   0029A0  6913               	setf	19,b	;volatile
  1953   0029A2                     
  1954                           ; BSR set to: 4
  1955                           ;mcc_generated_files/pin_manager.c: 121:     SLRCOND = 0xFF;
  1956   0029A2  691B               	setf	27,b	;volatile
  1957                           
  1958                           ;mcc_generated_files/pin_manager.c: 122:     SLRCONE = 0x07;
  1959   0029A4  0E07               	movlw	7
  1960   0029A6  6F23               	movwf	35,b	;volatile
  1961   0029A8                     
  1962                           ; BSR set to: 4
  1963                           ;mcc_generated_files/pin_manager.c: 123:     SLRCONF = 0xFF;
  1964   0029A8  692B               	setf	43,b	;volatile
  1965   0029AA                     
  1966                           ; BSR set to: 4
  1967                           ;mcc_generated_files/pin_manager.c: 128:     INLVLA = 0xFF;
  1968   0029AA  6904               	setf	4,b	;volatile
  1969   0029AC                     
  1970                           ; BSR set to: 4
  1971                           ;mcc_generated_files/pin_manager.c: 129:     INLVLB = 0xFF;
  1972   0029AC  690C               	setf	12,b	;volatile
  1973   0029AE                     
  1974                           ; BSR set to: 4
  1975                           ;mcc_generated_files/pin_manager.c: 130:     INLVLC = 0xFF;
  1976   0029AE  6914               	setf	20,b	;volatile
  1977   0029B0                     
  1978                           ; BSR set to: 4
  1979                           ;mcc_generated_files/pin_manager.c: 131:     INLVLD = 0xFF;
  1980   0029B0  691C               	setf	28,b	;volatile
  1981                           
  1982                           ;mcc_generated_files/pin_manager.c: 132:     INLVLE = 0x0F;
  1983   0029B2  0E0F               	movlw	15
  1984   0029B4  6F24               	movwf	36,b	;volatile
  1985   0029B6                     
  1986                           ; BSR set to: 4
  1987                           ;mcc_generated_files/pin_manager.c: 133:     INLVLF = 0xFF;
  1988   0029B6  692C               	setf	44,b	;volatile
  1989                           
  1990                           ;mcc_generated_files/pin_manager.c: 142:     I2C1SDAPPS = 0x14;
  1991   0029B8  0E14               	movlw	20
  1992   0029BA  0102               	movlb	2	; () banked
  1993   0029BC  6F70               	movwf	112,b	;volatile
  1994                           
  1995                           ;mcc_generated_files/pin_manager.c: 143:     RC3PPS = 0x37;
  1996   0029BE  0E37               	movlw	55
  1997   0029C0  6F14               	movwf	20,b	;volatile
  1998                           
  1999                           ;mcc_generated_files/pin_manager.c: 144:     RC4PPS = 0x38;
  2000   0029C2  0E38               	movlw	56
  2001   0029C4  6F15               	movwf	21,b	;volatile
  2002                           
  2003                           ;mcc_generated_files/pin_manager.c: 145:     RF1PPS = 0x20;
  2004   0029C6  0E20               	movlw	32
  2005   0029C8  6F2A               	movwf	42,b	;volatile
  2006                           
  2007                           ;mcc_generated_files/pin_manager.c: 146:     U1RXPPS = 0x28;
  2008   0029CA  0E28               	movlw	40
  2009   0029CC  6F72               	movwf	114,b	;volatile
  2010                           
  2011                           ;mcc_generated_files/pin_manager.c: 147:     I2C1SCLPPS = 0x13;
  2012   0029CE  0E13               	movlw	19
  2013   0029D0  6F71               	movwf	113,b	;volatile
  2014   0029D2                     
  2015                           ; BSR set to: 2
  2016   0029D2  0012               	return		;funcret
  2017   0029D4                     __end_of_PIN_MANAGER_Initialize:
  2018                           	callstack 0
  2019                           
  2020 ;; *************** function _OSCILLATOR_Initialize *****************
  2021 ;; Defined at:
  2022 ;;		line 60 in file "mcc_generated_files/mcc.c"
  2023 ;; Parameters:    Size  Location     Type
  2024 ;;		None
  2025 ;; Auto vars:     Size  Location     Type
  2026 ;;		None
  2027 ;; Return value:  Size  Location     Type
  2028 ;;                  1    wreg      void 
  2029 ;; Registers used:
  2030 ;;		wreg, status,2
  2031 ;; Tracked objects:
  2032 ;;		On entry : 0/0
  2033 ;;		On exit  : 0/0
  2034 ;;		Unchanged: 0/0
  2035 ;; Data sizes:     COMRAM   BANK5   BANK6   BANK7   BANK8   BANK9  BANK10  BANK11  BANK12  BANK13  BANK14  BANK15  BANK1
      +6  BANK17  BANK18  BANK19  BANK20  BANK21  BANK22  BANK23  BANK24  BANK25  BANK26  BANK27  BANK28  BANK29  BANK30  BANK3
      +1  BANK32  BANK33  BANK34  BANK35  BANK36
  2036 ;;      Params:         0       0       0       0       0       0       0       0       0       0       0       0       
      +0       0       0       0       0       0       0       0       0       0       0       0       0       0       0       
      +0       0       0       0       0       0
  2037 ;;      Locals:         0       0       0       0       0       0       0       0       0       0       0       0       
      +0       0       0       0       0       0       0       0       0       0       0       0       0       0       0       
      +0       0       0       0       0       0
  2038 ;;      Temps:          0       0       0       0       0       0       0       0       0       0       0       0       
      +0       0       0       0       0       0       0       0       0       0       0       0       0       0       0       
      +0       0       0       0       0       0
  2039 ;;      Totals:         0       0       0       0       0       0       0       0       0       0       0       0       
      +0       0       0       0       0       0       0       0       0       0       0       0       0       0       0       
      +0       0       0       0       0       0
  2040 ;;Total ram usage:        0 bytes
  2041 ;; Hardware stack levels used: 1
  2042 ;; This function calls:
  2043 ;;		Nothing
  2044 ;; This function is called by:
  2045 ;;		_SYSTEM_Initialize
  2046 ;; This function uses a non-reentrant model
  2047 ;;
  2048                           
  2049                           	psect	text14
  2050   00347C                     __ptext14:
  2051                           	callstack 0
  2052   00347C                     _OSCILLATOR_Initialize:
  2053                           	callstack 125
  2054   00347C                     
  2055                           ;mcc_generated_files/mcc.c: 63:     OSCCON1 = 0x60;
  2056   00347C  0E60               	movlw	96
  2057   00347E  0100               	movlb	0	; () banked
  2058   003480  6FAD               	movwf	173,b	;volatile
  2059                           
  2060                           ;mcc_generated_files/mcc.c: 65:     OSCCON3 = 0x00;
  2061   003482  0E00               	movlw	0
  2062   003484  6FAF               	movwf	175,b	;volatile
  2063                           
  2064                           ;mcc_generated_files/mcc.c: 67:     OSCEN = 0x00;
  2065   003486  0E00               	movlw	0
  2066   003488  6FB3               	movwf	179,b	;volatile
  2067                           
  2068                           ;mcc_generated_files/mcc.c: 69:     OSCFRQ = 0x08;
  2069   00348A  0E08               	movlw	8
  2070   00348C  6FB1               	movwf	177,b	;volatile
  2071                           
  2072                           ;mcc_generated_files/mcc.c: 71:     OSCTUNE = 0x00;
  2073   00348E  0E00               	movlw	0
  2074   003490  6FB0               	movwf	176,b	;volatile
  2075                           
  2076                           ;mcc_generated_files/mcc.c: 73:     ACTCON = 0x00;
  2077   003492  0E00               	movlw	0
  2078   003494  6FAC               	movwf	172,b	;volatile
  2079   003496                     
  2080                           ; BSR set to: 0
  2081   003496  0012               	return		;funcret
  2082   003498                     __end_of_OSCILLATOR_Initialize:
  2083                           	callstack 0
  2084                           
  2085 ;; *************** function _I2C1_Initialize *****************
  2086 ;; Defined at:
  2087 ;;		line 183 in file "mcc_generated_files/i2c1_master.c"
  2088 ;; Parameters:    Size  Location     Type
  2089 ;;		None
  2090 ;; Auto vars:     Size  Location     Type
  2091 ;;		None
  2092 ;; Return value:  Size  Location     Type
  2093 ;;                  1    wreg      void 
  2094 ;; Registers used:
  2095 ;;		wreg, status,2
  2096 ;; Tracked objects:
  2097 ;;		On entry : 0/0
  2098 ;;		On exit  : 0/0
  2099 ;;		Unchanged: 0/0
  2100 ;; Data sizes:     COMRAM   BANK5   BANK6   BANK7   BANK8   BANK9  BANK10  BANK11  BANK12  BANK13  BANK14  BANK15  BANK1
      +6  BANK17  BANK18  BANK19  BANK20  BANK21  BANK22  BANK23  BANK24  BANK25  BANK26  BANK27  BANK28  BANK29  BANK30  BANK3
      +1  BANK32  BANK33  BANK34  BANK35  BANK36
  2101 ;;      Params:         0       0       0       0       0       0       0       0       0       0       0       0       
      +0       0       0       0       0       0       0       0       0       0       0       0       0       0       0       
      +0       0       0       0       0       0
  2102 ;;      Locals:         0       0       0       0       0       0       0       0       0       0       0       0       
      +0       0       0       0       0       0       0       0       0       0       0       0       0       0       0       
      +0       0       0       0       0       0
  2103 ;;      Temps:          0       0       0       0       0       0       0       0       0       0       0       0       
      +0       0       0       0       0       0       0       0       0       0       0       0       0       0       0       
      +0       0       0       0       0       0
  2104 ;;      Totals:         0       0       0       0       0       0       0       0       0       0       0       0       
      +0       0       0       0       0       0       0       0       0       0       0       0       0       0       0       
      +0       0       0       0       0       0
  2105 ;;Total ram usage:        0 bytes
  2106 ;; Hardware stack levels used: 1
  2107 ;; This function calls:
  2108 ;;		Nothing
  2109 ;; This function is called by:
  2110 ;;		_SYSTEM_Initialize
  2111 ;; This function uses a non-reentrant model
  2112 ;;
  2113                           
  2114                           	psect	text15
  2115   003438                     __ptext15:
  2116                           	callstack 0
  2117   003438                     _I2C1_Initialize:
  2118                           	callstack 125
  2119   003438                     
  2120                           ;mcc_generated_files/i2c1_master.c: 186:     I2C1CON0 = 0x04;
  2121   003438  0E04               	movlw	4
  2122   00343A  0102               	movlb	2	; () banked
  2123   00343C  6F94               	movwf	148,b	;volatile
  2124                           
  2125                           ;mcc_generated_files/i2c1_master.c: 188:     I2C1CON1 = 0x80;
  2126   00343E  0E80               	movlw	128
  2127   003440  6F95               	movwf	149,b	;volatile
  2128                           
  2129                           ;mcc_generated_files/i2c1_master.c: 190:     I2C1CON2 = 0x18;
  2130   003442  0E18               	movlw	24
  2131   003444  6F96               	movwf	150,b	;volatile
  2132                           
  2133                           ;mcc_generated_files/i2c1_master.c: 192:     I2C1CLK = 0x03;
  2134   003446  0E03               	movlw	3
  2135   003448  6F9C               	movwf	156,b	;volatile
  2136                           
  2137                           ;mcc_generated_files/i2c1_master.c: 194:     I2C1PIR = 0x00;
  2138   00344A  0E00               	movlw	0
  2139   00344C  6F9A               	movwf	154,b	;volatile
  2140                           
  2141                           ;mcc_generated_files/i2c1_master.c: 196:     I2C1PIE = 0x00;
  2142   00344E  0E00               	movlw	0
  2143   003450  6F9B               	movwf	155,b	;volatile
  2144                           
  2145                           ;mcc_generated_files/i2c1_master.c: 198:     I2C1ERR = 0x00;
  2146   003452  0E00               	movlw	0
  2147   003454  6F97               	movwf	151,b	;volatile
  2148   003456                     
  2149                           ; BSR set to: 2
  2150                           ;mcc_generated_files/i2c1_master.c: 200:     I2C1CNT = 0xFF;
  2151   003456  698D               	setf	141,b	;volatile
  2152   003458                     
  2153                           ; BSR set to: 2
  2154   003458  0012               	return		;funcret
  2155   00345A                     __end_of_I2C1_Initialize:
  2156                           	callstack 0
  2157                           
  2158 ;; *************** function _ADCC_Initialize *****************
  2159 ;; Defined at:
  2160 ;;		line 62 in file "mcc_generated_files/adcc.c"
  2161 ;; Parameters:    Size  Location     Type
  2162 ;;		None
  2163 ;; Auto vars:     Size  Location     Type
  2164 ;;		None
  2165 ;; Return value:  Size  Location     Type
  2166 ;;                  1    wreg      void 
  2167 ;; Registers used:
  2168 ;;		wreg, status,2
  2169 ;; Tracked objects:
  2170 ;;		On entry : 0/0
  2171 ;;		On exit  : 0/0
  2172 ;;		Unchanged: 0/0
  2173 ;; Data sizes:     COMRAM   BANK5   BANK6   BANK7   BANK8   BANK9  BANK10  BANK11  BANK12  BANK13  BANK14  BANK15  BANK1
      +6  BANK17  BANK18  BANK19  BANK20  BANK21  BANK22  BANK23  BANK24  BANK25  BANK26  BANK27  BANK28  BANK29  BANK30  BANK3
      +1  BANK32  BANK33  BANK34  BANK35  BANK36
  2174 ;;      Params:         0       0       0       0       0       0       0       0       0       0       0       0       
      +0       0       0       0       0       0       0       0       0       0       0       0       0       0       0       
      +0       0       0       0       0       0
  2175 ;;      Locals:         0       0       0       0       0       0       0       0       0       0       0       0       
      +0       0       0       0       0       0       0       0       0       0       0       0       0       0       0       
      +0       0       0       0       0       0
  2176 ;;      Temps:          0       0       0       0       0       0       0       0       0       0       0       0       
      +0       0       0       0       0       0       0       0       0       0       0       0       0       0       0       
      +0       0       0       0       0       0
  2177 ;;      Totals:         0       0       0       0       0       0       0       0       0       0       0       0       
      +0       0       0       0       0       0       0       0       0       0       0       0       0       0       0       
      +0       0       0       0       0       0
  2178 ;;Total ram usage:        0 bytes
  2179 ;; Hardware stack levels used: 1
  2180 ;; This function calls:
  2181 ;;		Nothing
  2182 ;; This function is called by:
  2183 ;;		_SYSTEM_Initialize
  2184 ;; This function uses a non-reentrant model
  2185 ;;
  2186                           
  2187                           	psect	text16
  2188   002FE2                     __ptext16:
  2189                           	callstack 0
  2190   002FE2                     _ADCC_Initialize:
  2191                           	callstack 125
  2192   002FE2                     
  2193                           ;mcc_generated_files/adcc.c: 66:     ADLTHL = 0x00;
  2194   002FE2  0E00               	movlw	0
  2195   002FE4  0103               	movlb	3	; () banked
  2196   002FE6  6FD9               	movwf	217,b	;volatile
  2197                           
  2198                           ;mcc_generated_files/adcc.c: 68:     ADLTHH = 0x00;
  2199   002FE8  0E00               	movlw	0
  2200   002FEA  6FDA               	movwf	218,b	;volatile
  2201                           
  2202                           ;mcc_generated_files/adcc.c: 70:     ADUTHL = 0x00;
  2203   002FEC  0E00               	movlw	0
  2204   002FEE  6FDB               	movwf	219,b	;volatile
  2205                           
  2206                           ;mcc_generated_files/adcc.c: 72:     ADUTHH = 0x00;
  2207   002FF0  0E00               	movlw	0
  2208   002FF2  6FDC               	movwf	220,b	;volatile
  2209                           
  2210                           ;mcc_generated_files/adcc.c: 74:     ADSTPTL = 0x00;
  2211   002FF4  0E00               	movlw	0
  2212   002FF6  6FDF               	movwf	223,b	;volatile
  2213                           
  2214                           ;mcc_generated_files/adcc.c: 76:     ADSTPTH = 0x00;
  2215   002FF8  0E00               	movlw	0
  2216   002FFA  6FE0               	movwf	224,b	;volatile
  2217                           
  2218                           ;mcc_generated_files/adcc.c: 78:     ADACCU = 0x00;
  2219   002FFC  0E00               	movlw	0
  2220   002FFE  6FE5               	movwf	229,b	;volatile
  2221                           
  2222                           ;mcc_generated_files/adcc.c: 80:     ADRPT = 0x00;
  2223   003000  0E00               	movlw	0
  2224   003002  6FE7               	movwf	231,b	;volatile
  2225                           
  2226                           ;mcc_generated_files/adcc.c: 82:     ADPCH = 0x00;
  2227   003004  0E00               	movlw	0
  2228   003006  6FEC               	movwf	236,b	;volatile
  2229                           
  2230                           ;mcc_generated_files/adcc.c: 84:     ADACQL = 0x00;
  2231   003008  0E00               	movlw	0
  2232   00300A  6FEE               	movwf	238,b	;volatile
  2233                           
  2234                           ;mcc_generated_files/adcc.c: 86:     ADACQH = 0x00;
  2235   00300C  0E00               	movlw	0
  2236   00300E  6FEF               	movwf	239,b	;volatile
  2237                           
  2238                           ;mcc_generated_files/adcc.c: 88:     ADCAP = 0x00;
  2239   003010  0E00               	movlw	0
  2240   003012  6FF0               	movwf	240,b	;volatile
  2241                           
  2242                           ;mcc_generated_files/adcc.c: 90:     ADPREL = 0x00;
  2243   003014  0E00               	movlw	0
  2244   003016  6FF1               	movwf	241,b	;volatile
  2245                           
  2246                           ;mcc_generated_files/adcc.c: 92:     ADPREH = 0x00;
  2247   003018  0E00               	movlw	0
  2248   00301A  6FF2               	movwf	242,b	;volatile
  2249                           
  2250                           ;mcc_generated_files/adcc.c: 94:     ADCON1 = 0x00;
  2251   00301C  0E00               	movlw	0
  2252   00301E  6FF4               	movwf	244,b	;volatile
  2253                           
  2254                           ;mcc_generated_files/adcc.c: 96:     ADCON2 = 0x10;
  2255   003020  0E10               	movlw	16
  2256   003022  6FF5               	movwf	245,b	;volatile
  2257                           
  2258                           ;mcc_generated_files/adcc.c: 98:     ADCON3 = 0x00;
  2259   003024  0E00               	movlw	0
  2260   003026  6FF6               	movwf	246,b	;volatile
  2261                           
  2262                           ;mcc_generated_files/adcc.c: 100:     ADSTAT = 0x00;
  2263   003028  0E00               	movlw	0
  2264   00302A  6FF7               	movwf	247,b	;volatile
  2265                           
  2266                           ;mcc_generated_files/adcc.c: 102:     ADREF = 0x00;
  2267   00302C  0E00               	movlw	0
  2268   00302E  6FF8               	movwf	248,b	;volatile
  2269                           
  2270                           ;mcc_generated_files/adcc.c: 104:     ADACT = 0x00;
  2271   003030  0E00               	movlw	0
  2272   003032  6FF9               	movwf	249,b	;volatile
  2273                           
  2274                           ;mcc_generated_files/adcc.c: 106:     ADCLK = 0x3F;
  2275   003034  0E3F               	movlw	63
  2276   003036  6FFA               	movwf	250,b	;volatile
  2277                           
  2278                           ;mcc_generated_files/adcc.c: 108:     ADCON0 = 0x84;
  2279   003038  0E84               	movlw	132
  2280   00303A  6FF3               	movwf	243,b	;volatile
  2281   00303C                     
  2282                           ; BSR set to: 3
  2283   00303C  0012               	return		;funcret
  2284   00303E                     __end_of_ADCC_Initialize:
  2285                           	callstack 0
  2286                           
  2287 ;; *************** function _I2C_LCD_Init *****************
  2288 ;; Defined at:
  2289 ;;		line 54 in file "LCD_I2C_LIB.c"
  2290 ;; Parameters:    Size  Location     Type
  2291 ;;		None
  2292 ;; Auto vars:     Size  Location     Type
  2293 ;;		None
  2294 ;; Return value:  Size  Location     Type
  2295 ;;                  1    wreg      void 
  2296 ;; Registers used:
  2297 ;;		wreg, fsr2l, fsr2h, status,2, status,0, pcl, pclath, pclatu, tosl, tblptrl, tblptrh, tblptru, prodl, prodh, cstack
  2298 ;; Tracked objects:
  2299 ;;		On entry : 0/0
  2300 ;;		On exit  : 0/0
  2301 ;;		Unchanged: 0/0
  2302 ;; Data sizes:     COMRAM   BANK5   BANK6   BANK7   BANK8   BANK9  BANK10  BANK11  BANK12  BANK13  BANK14  BANK15  BANK1
      +6  BANK17  BANK18  BANK19  BANK20  BANK21  BANK22  BANK23  BANK24  BANK25  BANK26  BANK27  BANK28  BANK29  BANK30  BANK3
      +1  BANK32  BANK33  BANK34  BANK35  BANK36
  2303 ;;      Params:         0       0       0       0       0       0       0       0       0       0       0       0       
      +0       0       0       0       0       0       0       0       0       0       0       0       0       0       0       
      +0       0       0       0       0       0
  2304 ;;      Locals:         0       0       0       0       0       0       0       0       0       0       0       0       
      +0       0       0       0       0       0       0       0       0       0       0       0       0       0       0       
      +0       0       0       0       0       0
  2305 ;;      Temps:          2       0       0       0       0       0       0       0       0       0       0       0       
      +0       0       0       0       0       0       0       0       0       0       0       0       0       0       0       
      +0       0       0       0       0       0
  2306 ;;      Totals:         2       0       0       0       0       0       0       0       0       0       0       0       
      +0       0       0       0       0       0       0       0       0       0       0       0       0       0       0       
      +0       0       0       0       0       0
  2307 ;;Total ram usage:        2 bytes
  2308 ;; Hardware stack levels used: 1
  2309 ;; Hardware stack levels required when called: 16
  2310 ;; This function calls:
  2311 ;;		_I2C_LCD_Cmd
  2312 ;;		_PCF_Wr
  2313 ;;		_sendCMD
  2314 ;; This function is called by:
  2315 ;;		_main
  2316 ;; This function uses a non-reentrant model
  2317 ;;
  2318                           
  2319                           	psect	text17
  2320   002BA4                     __ptext17:
  2321                           	callstack 0
  2322   002BA4                     _I2C_LCD_Init:
  2323                           	callstack 110
  2324   002BA4                     
  2325                           ;LCD_I2C_LIB.c: 55:     PCF_Wr(0x00);
  2326   002BA4  0E00               	movlw	0
  2327   002BA6  ECE8  F01A         	call	_PCF_Wr
  2328   002BAA                     
  2329                           ;LCD_I2C_LIB.c: 56:     _delay((unsigned long)((15)*(64000000/4000.0)));
  2330   002BAA  0E02               	movlw	2
  2331   002BAC  6E54               	movwf	(??_I2C_LCD_Init+1)^(0+1280),c
  2332   002BAE  0E38               	movlw	56
  2333   002BB0  6E53               	movwf	??_I2C_LCD_Init^(0+1280),c
  2334   002BB2  0EAD               	movlw	173
  2335   002BB4                     u1437:
  2336   002BB4  2EE8               	decfsz	wreg,f,c
  2337   002BB6  D7FE               	bra	u1437
  2338   002BB8  2E53               	decfsz	??_I2C_LCD_Init^(0+1280),f,c
  2339   002BBA  D7FC               	bra	u1437
  2340   002BBC  2E54               	decfsz	(??_I2C_LCD_Init+1)^(0+1280),f,c
  2341   002BBE  D7FA               	bra	u1437
  2342   002BC0  F000               	nop	
  2343   002BC2                     
  2344                           ;LCD_I2C_LIB.c: 57:     sendCMD(0x03);
  2345   002BC2  0E03               	movlw	3
  2346   002BC4  EC8E  F019         	call	_sendCMD
  2347                           
  2348                           ;LCD_I2C_LIB.c: 58:     _delay((unsigned long)((5)*(64000000/4000.0)));
  2349   002BC8  0E68               	movlw	104
  2350   002BCA  6E53               	movwf	??_I2C_LCD_Init^(0+1280),c
  2351   002BCC  0EE4               	movlw	228
  2352   002BCE                     u1447:
  2353   002BCE  2EE8               	decfsz	wreg,f,c
  2354   002BD0  D7FE               	bra	u1447
  2355   002BD2  2E53               	decfsz	??_I2C_LCD_Init^(0+1280),f,c
  2356   002BD4  D7FC               	bra	u1447
  2357   002BD6  D000               	nop2	
  2358   002BD8                     
  2359                           ;LCD_I2C_LIB.c: 59:     sendCMD(0x03);
  2360   002BD8  0E03               	movlw	3
  2361   002BDA  EC8E  F019         	call	_sendCMD
  2362   002BDE                     
  2363                           ;LCD_I2C_LIB.c: 60:     _delay((unsigned long)((100)*(64000000/4000000.0)));
  2364   002BDE  0EE4               	movlw	228
  2365   002BE0                     u1457:
  2366   002BE0  D000               	nop2	
  2367   002BE2  D000               	nop2	
  2368   002BE4  2EE8               	decfsz	wreg,f,c
  2369   002BE6  D7FC               	bra	u1457
  2370   002BE8  D000               	nop2	
  2371   002BEA  D000               	nop2	
  2372                           
  2373                           ;LCD_I2C_LIB.c: 61:     sendCMD(0x03);
  2374   002BEC  0E03               	movlw	3
  2375   002BEE  EC8E  F019         	call	_sendCMD
  2376                           
  2377                           ;LCD_I2C_LIB.c: 62:     sendCMD(0x02);
  2378   002BF2  0E02               	movlw	2
  2379   002BF4  EC8E  F019         	call	_sendCMD
  2380                           
  2381                           ;LCD_I2C_LIB.c: 64:     I2C_LCD_Cmd( 0x20 | 0x00 | 0x08 | 0x00 );
  2382   002BF8  0E28               	movlw	40
  2383   002BFA  EC2B  F01B         	call	_I2C_LCD_Cmd
  2384   002BFE                     
  2385                           ;LCD_I2C_LIB.c: 65:     _delay((unsigned long)((37)*(64000000/4000000.0)));
  2386   002BFE  0EC5               	movlw	197
  2387   002C00                     u1467:
  2388   002C00  2EE8               	decfsz	wreg,f,c
  2389   002C02  D7FE               	bra	u1467
  2390   002C04  F000               	nop	
  2391   002C06                     
  2392                           ;LCD_I2C_LIB.c: 67:     _lcd_params = 0x04 | 0x02 | 0x01;
  2393   002C06  0E07               	movlw	7
  2394   002C08  6E30               	movwf	__lcd_params^(0+1280),c
  2395   002C0A                     
  2396                           ;LCD_I2C_LIB.c: 68:     I2C_LCD_Cmd(0x08 | _lcd_params);
  2397   002C0A  0E0F               	movlw	15
  2398   002C0C  EC2B  F01B         	call	_I2C_LCD_Cmd
  2399   002C10                     
  2400                           ;LCD_I2C_LIB.c: 69:     _delay((unsigned long)((37)*(64000000/4000000.0)));
  2401   002C10  0EC5               	movlw	197
  2402   002C12                     u1477:
  2403   002C12  2EE8               	decfsz	wreg,f,c
  2404   002C14  D7FE               	bra	u1477
  2405   002C16  F000               	nop	
  2406   002C18                     
  2407                           ;LCD_I2C_LIB.c: 71:     I2C_LCD_Cmd(0x01);
  2408   002C18  0E01               	movlw	1
  2409   002C1A  EC2B  F01B         	call	_I2C_LCD_Cmd
  2410   002C1E                     
  2411                           ;LCD_I2C_LIB.c: 72:     _delay((unsigned long)((2)*(64000000/4000.0)));
  2412   002C1E  0E2A               	movlw	42
  2413   002C20  6E53               	movwf	??_I2C_LCD_Init^(0+1280),c
  2414   002C22  0E8E               	movlw	142
  2415   002C24                     u1487:
  2416   002C24  2EE8               	decfsz	wreg,f,c
  2417   002C26  D7FE               	bra	u1487
  2418   002C28  2E53               	decfsz	??_I2C_LCD_Init^(0+1280),f,c
  2419   002C2A  D7FC               	bra	u1487
  2420   002C2C  0012               	return		;funcret
  2421   002C2E                     __end_of_I2C_LCD_Init:
  2422                           	callstack 0
  2423                           
  2424 ;; *************** function _I2C_LCD_Cmd *****************
  2425 ;; Defined at:
  2426 ;;		line 74 in file "LCD_I2C_LIB.c"
  2427 ;; Parameters:    Size  Location     Type
  2428 ;;  cmd             1    wreg     unsigned char 
  2429 ;; Auto vars:     Size  Location     Type
  2430 ;;  cmd             1   32[COMRAM] unsigned char 
  2431 ;; Return value:  Size  Location     Type
  2432 ;;                  1    wreg      void 
  2433 ;; Registers used:
  2434 ;;		wreg, fsr2l, fsr2h, status,2, status,0, pcl, pclath, pclatu, tosl, tblptrl, tblptrh, tblptru, prodl, prodh, cstack
  2435 ;; Tracked objects:
  2436 ;;		On entry : 0/0
  2437 ;;		On exit  : 0/0
  2438 ;;		Unchanged: 0/0
  2439 ;; Data sizes:     COMRAM   BANK5   BANK6   BANK7   BANK8   BANK9  BANK10  BANK11  BANK12  BANK13  BANK14  BANK15  BANK1
      +6  BANK17  BANK18  BANK19  BANK20  BANK21  BANK22  BANK23  BANK24  BANK25  BANK26  BANK27  BANK28  BANK29  BANK30  BANK3
      +1  BANK32  BANK33  BANK34  BANK35  BANK36
  2440 ;;      Params:         0       0       0       0       0       0       0       0       0       0       0       0       
      +0       0       0       0       0       0       0       0       0       0       0       0       0       0       0       
      +0       0       0       0       0       0
  2441 ;;      Locals:         1       0       0       0       0       0       0       0       0       0       0       0       
      +0       0       0       0       0       0       0       0       0       0       0       0       0       0       0       
      +0       0       0       0       0       0
  2442 ;;      Temps:          0       0       0       0       0       0       0       0       0       0       0       0       
      +0       0       0       0       0       0       0       0       0       0       0       0       0       0       0       
      +0       0       0       0       0       0
  2443 ;;      Totals:         1       0       0       0       0       0       0       0       0       0       0       0       
      +0       0       0       0       0       0       0       0       0       0       0       0       0       0       0       
      +0       0       0       0       0       0
  2444 ;;Total ram usage:        1 bytes
  2445 ;; Hardware stack levels used: 1
  2446 ;; Hardware stack levels required when called: 15
  2447 ;; This function calls:
  2448 ;;		_sendCMD
  2449 ;; This function is called by:
  2450 ;;		_I2C_LCD_Init
  2451 ;;		_I2C_LCD_Set_Cursor
  2452 ;; This function uses a non-reentrant model
  2453 ;;
  2454                           
  2455                           	psect	text18
  2456   003656                     __ptext18:
  2457                           	callstack 0
  2458   003656                     _I2C_LCD_Cmd:
  2459                           	callstack 110
  2460                           
  2461                           ;incstack = 0
  2462                           ;I2C_LCD_Cmd@cmd stored from wreg
  2463   003656  6E52               	movwf	I2C_LCD_Cmd@cmd^(0+1280),c
  2464   003658                     
  2465                           ;LCD_I2C_LIB.c: 75:     sendCMD(cmd);
  2466   003658  5052               	movf	I2C_LCD_Cmd@cmd^(0+1280),w,c
  2467   00365A  EC8E  F019         	call	_sendCMD
  2468   00365E  0012               	return		;funcret
  2469   003660                     __end_of_I2C_LCD_Cmd:
  2470                           	callstack 0
  2471                           
  2472 ;; *************** function _sendCMD *****************
  2473 ;; Defined at:
  2474 ;;		line 42 in file "LCD_I2C_LIB.c"
  2475 ;; Parameters:    Size  Location     Type
  2476 ;;  cmd             1    wreg     unsigned char 
  2477 ;; Auto vars:     Size  Location     Type
  2478 ;;  cmd             1   31[COMRAM] unsigned char 
  2479 ;;  nibbleL         1   30[COMRAM] unsigned char 
  2480 ;;  nibbleH         1   29[COMRAM] unsigned char 
  2481 ;; Return value:  Size  Location     Type
  2482 ;;                  1    wreg      void 
  2483 ;; Registers used:
  2484 ;;		wreg, fsr2l, fsr2h, status,2, status,0, pcl, pclath, pclatu, tosl, tblptrl, tblptrh, tblptru, prodl, prodh, cstack
  2485 ;; Tracked objects:
  2486 ;;		On entry : 0/0
  2487 ;;		On exit  : 0/0
  2488 ;;		Unchanged: 0/0
  2489 ;; Data sizes:     COMRAM   BANK5   BANK6   BANK7   BANK8   BANK9  BANK10  BANK11  BANK12  BANK13  BANK14  BANK15  BANK1
      +6  BANK17  BANK18  BANK19  BANK20  BANK21  BANK22  BANK23  BANK24  BANK25  BANK26  BANK27  BANK28  BANK29  BANK30  BANK3
      +1  BANK32  BANK33  BANK34  BANK35  BANK36
  2490 ;;      Params:         0       0       0       0       0       0       0       0       0       0       0       0       
      +0       0       0       0       0       0       0       0       0       0       0       0       0       0       0       
      +0       0       0       0       0       0
  2491 ;;      Locals:         3       0       0       0       0       0       0       0       0       0       0       0       
      +0       0       0       0       0       0       0       0       0       0       0       0       0       0       0       
      +0       0       0       0       0       0
  2492 ;;      Temps:          1       0       0       0       0       0       0       0       0       0       0       0       
      +0       0       0       0       0       0       0       0       0       0       0       0       0       0       0       
      +0       0       0       0       0       0
  2493 ;;      Totals:         4       0       0       0       0       0       0       0       0       0       0       0       
      +0       0       0       0       0       0       0       0       0       0       0       0       0       0       0       
      +0       0       0       0       0       0
  2494 ;;Total ram usage:        4 bytes
  2495 ;; Hardware stack levels used: 1
  2496 ;; Hardware stack levels required when called: 14
  2497 ;; This function calls:
  2498 ;;		_loadPCF
  2499 ;; This function is called by:
  2500 ;;		_I2C_LCD_Init
  2501 ;;		_I2C_LCD_Cmd
  2502 ;; This function uses a non-reentrant model
  2503 ;;
  2504                           
  2505                           	psect	text19
  2506   00331C                     __ptext19:
  2507                           	callstack 0
  2508   00331C                     _sendCMD:
  2509                           	callstack 111
  2510                           
  2511                           ;incstack = 0
  2512                           ;sendCMD@cmd stored from wreg
  2513   00331C  6E51               	movwf	sendCMD@cmd^(0+1280),c
  2514   00331E                     
  2515                           ;LCD_I2C_LIB.c: 43:     char nibbleH, nibbleL;;LCD_I2C_LIB.c: 45:     nibbleH = (cmd & 0
      +                          xF0)<<0;
  2516   00331E  5051               	movf	sendCMD@cmd^(0+1280),w,c
  2517   003320  0BF0               	andlw	240
  2518   003322  6E4F               	movwf	sendCMD@nibbleH^(0+1280),c
  2519                           
  2520                           ;LCD_I2C_LIB.c: 46:     nibbleL = (cmd & 0x0F)<<4;
  2521   003324  C551  F54E         	movff	sendCMD@cmd,??_sendCMD
  2522   003328  0E0F               	movlw	15
  2523   00332A  164E               	andwf	??_sendCMD^(0+1280),f,c
  2524   00332C  384E               	swapf	??_sendCMD^(0+1280),w,c
  2525   00332E  0BF0               	andlw	240
  2526   003330  6E50               	movwf	sendCMD@nibbleL^(0+1280),c
  2527   003332                     
  2528                           ;LCD_I2C_LIB.c: 48:     loadPCF(nibbleH,0);
  2529   003332  0E00               	movlw	0
  2530   003334  6E4A               	movwf	loadPCF@mode^(0+1280),c
  2531   003336  504F               	movf	sendCMD@nibbleH^(0+1280),w,c
  2532   003338  EC1F  F018         	call	_loadPCF
  2533   00333C                     
  2534                           ;LCD_I2C_LIB.c: 49:     loadPCF(nibbleL,0);
  2535   00333C  0E00               	movlw	0
  2536   00333E  6E4A               	movwf	loadPCF@mode^(0+1280),c
  2537   003340  5050               	movf	sendCMD@nibbleL^(0+1280),w,c
  2538   003342  EC1F  F018         	call	_loadPCF
  2539   003346  0012               	return		;funcret
  2540   003348                     __end_of_sendCMD:
  2541                           	callstack 0
  2542                           
  2543 ;; *************** function _loadPCF *****************
  2544 ;; Defined at:
  2545 ;;		line 17 in file "LCD_I2C_LIB.c"
  2546 ;; Parameters:    Size  Location     Type
  2547 ;;  dato            1    wreg     unsigned char 
  2548 ;;  mode            1   24[COMRAM] unsigned char 
  2549 ;; Auto vars:     Size  Location     Type
  2550 ;;  dato            1   27[COMRAM] unsigned char 
  2551 ;; Return value:  Size  Location     Type
  2552 ;;                  1    wreg      void 
  2553 ;; Registers used:
  2554 ;;		wreg, fsr2l, fsr2h, status,2, status,0, pcl, pclath, pclatu, tosl, tblptrl, tblptrh, tblptru, prodl, prodh, cstack
  2555 ;; Tracked objects:
  2556 ;;		On entry : 0/0
  2557 ;;		On exit  : 0/0
  2558 ;;		Unchanged: 0/0
  2559 ;; Data sizes:     COMRAM   BANK5   BANK6   BANK7   BANK8   BANK9  BANK10  BANK11  BANK12  BANK13  BANK14  BANK15  BANK1
      +6  BANK17  BANK18  BANK19  BANK20  BANK21  BANK22  BANK23  BANK24  BANK25  BANK26  BANK27  BANK28  BANK29  BANK30  BANK3
      +1  BANK32  BANK33  BANK34  BANK35  BANK36
  2560 ;;      Params:         1       0       0       0       0       0       0       0       0       0       0       0       
      +0       0       0       0       0       0       0       0       0       0       0       0       0       0       0       
      +0       0       0       0       0       0
  2561 ;;      Locals:         1       0       0       0       0       0       0       0       0       0       0       0       
      +0       0       0       0       0       0       0       0       0       0       0       0       0       0       0       
      +0       0       0       0       0       0
  2562 ;;      Temps:          2       0       0       0       0       0       0       0       0       0       0       0       
      +0       0       0       0       0       0       0       0       0       0       0       0       0       0       0       
      +0       0       0       0       0       0
  2563 ;;      Totals:         4       0       0       0       0       0       0       0       0       0       0       0       
      +0       0       0       0       0       0       0       0       0       0       0       0       0       0       0       
      +0       0       0       0       0       0
  2564 ;;Total ram usage:        4 bytes
  2565 ;; Hardware stack levels used: 1
  2566 ;; Hardware stack levels required when called: 13
  2567 ;; This function calls:
  2568 ;;		_PCF_Wr
  2569 ;; This function is called by:
  2570 ;;		_sendCMD
  2571 ;;		_sendDATA
  2572 ;; This function uses a non-reentrant model
  2573 ;;
  2574                           
  2575                           	psect	text20
  2576   00303E                     __ptext20:
  2577                           	callstack 0
  2578   00303E                     _loadPCF:
  2579                           	callstack 111
  2580                           
  2581                           ;incstack = 0
  2582                           ;loadPCF@dato stored from wreg
  2583   00303E  6E4D               	movwf	loadPCF@dato^(0+1280),c
  2584   003040                     
  2585                           ;LCD_I2C_LIB.c: 19:     switch(mode){
  2586   003040  EF28  F018         	goto	l3419
  2587   003044                     l3413:
  2588   003044  904D               	bcf	loadPCF@dato^(0+1280),0,c
  2589   003046  EF3D  F018         	goto	l3421
  2590   00304A                     l3415:
  2591   00304A  804D               	bsf	loadPCF@dato^(0+1280),0,c
  2592   00304C  EF3D  F018         	goto	l3421
  2593   003050                     l3419:
  2594   003050  504A               	movf	loadPCF@mode^(0+1280),w,c
  2595   003052  6E4B               	movwf	??_loadPCF^(0+1280),c
  2596   003054  6A4C               	clrf	(??_loadPCF+1)^(0+1280),c
  2597                           
  2598                           ; Switch on 2 bytes has been partitioned into a top level switch of size 1, and 1 sub-sw
      +                          itches
  2599                           ; Switch size 1, requested type "simple"
  2600                           ; Number of cases is 1, Range of values is 0 to 0
  2601                           ; switch strategies available:
  2602                           ; Name         Instructions Cycles
  2603                           ; simple_byte            4     3 (average)
  2604                           ;	Chosen strategy is simple_byte
  2605   003056  504C               	movf	(??_loadPCF+1)^(0+1280),w,c
  2606   003058  0A00               	xorlw	0	; case 0
  2607   00305A  B4D8               	btfsc	status,2,c
  2608   00305C  EF32  F018         	goto	l3845
  2609   003060  EF3D  F018         	goto	l3421
  2610   003064                     l3845:
  2611                           
  2612                           ; Switch size 1, requested type "simple"
  2613                           ; Number of cases is 2, Range of values is 0 to 1
  2614                           ; switch strategies available:
  2615                           ; Name         Instructions Cycles
  2616                           ; simple_byte            7     4 (average)
  2617                           ;	Chosen strategy is simple_byte
  2618   003064  504B               	movf	??_loadPCF^(0+1280),w,c
  2619   003066  0A00               	xorlw	0	; case 0
  2620   003068  B4D8               	btfsc	status,2,c
  2621   00306A  EF22  F018         	goto	l3413
  2622   00306E  0A01               	xorlw	1	; case 1
  2623   003070  B4D8               	btfsc	status,2,c
  2624   003072  EF25  F018         	goto	l3415
  2625   003076  EF3D  F018         	goto	l3421
  2626   00307A                     l3421:
  2627                           
  2628                           ;LCD_I2C_LIB.c: 24:     PCF_Wr(dato);
  2629   00307A  504D               	movf	loadPCF@dato^(0+1280),w,c
  2630   00307C  ECE8  F01A         	call	_PCF_Wr
  2631   003080                     
  2632                           ;LCD_I2C_LIB.c: 25:     dato |= (1<<2);
  2633   003080  844D               	bsf	loadPCF@dato^(0+1280),2,c
  2634   003082                     
  2635                           ;LCD_I2C_LIB.c: 26:     PCF_Wr(dato);
  2636   003082  504D               	movf	loadPCF@dato^(0+1280),w,c
  2637   003084  ECE8  F01A         	call	_PCF_Wr
  2638                           
  2639                           ;LCD_I2C_LIB.c: 27:     dato &= ~(1<<2);
  2640   003088  944D               	bcf	loadPCF@dato^(0+1280),2,c
  2641   00308A                     
  2642                           ;LCD_I2C_LIB.c: 28:     PCF_Wr(dato);
  2643   00308A  504D               	movf	loadPCF@dato^(0+1280),w,c
  2644   00308C  ECE8  F01A         	call	_PCF_Wr
  2645   003090                     
  2646                           ;LCD_I2C_LIB.c: 29:     _delay((unsigned long)((30)*(64000000/4000000.0)));
  2647   003090  0EA0               	movlw	160
  2648   003092                     u1497:
  2649   003092  2EE8               	decfsz	wreg,f,c
  2650   003094  D7FE               	bra	u1497
  2651   003096  0012               	return		;funcret
  2652   003098                     __end_of_loadPCF:
  2653                           	callstack 0
  2654                           
  2655 ;; *************** function _PCF_Wr *****************
  2656 ;; Defined at:
  2657 ;;		line 14 in file "LCD_I2C_LIB.c"
  2658 ;; Parameters:    Size  Location     Type
  2659 ;;  dato            1    wreg     unsigned char 
  2660 ;; Auto vars:     Size  Location     Type
  2661 ;;  dato            1   23[COMRAM] unsigned char 
  2662 ;; Return value:  Size  Location     Type
  2663 ;;                  1    wreg      void 
  2664 ;; Registers used:
  2665 ;;		wreg, fsr2l, fsr2h, status,2, status,0, pcl, pclath, pclatu, tosl, tblptrl, tblptrh, tblptru, prodl, prodh, cstack
  2666 ;; Tracked objects:
  2667 ;;		On entry : 0/0
  2668 ;;		On exit  : 0/0
  2669 ;;		Unchanged: 0/0
  2670 ;; Data sizes:     COMRAM   BANK5   BANK6   BANK7   BANK8   BANK9  BANK10  BANK11  BANK12  BANK13  BANK14  BANK15  BANK1
      +6  BANK17  BANK18  BANK19  BANK20  BANK21  BANK22  BANK23  BANK24  BANK25  BANK26  BANK27  BANK28  BANK29  BANK30  BANK3
      +1  BANK32  BANK33  BANK34  BANK35  BANK36
  2671 ;;      Params:         0       0       0       0       0       0       0       0       0       0       0       0       
      +0       0       0       0       0       0       0       0       0       0       0       0       0       0       0       
      +0       0       0       0       0       0
  2672 ;;      Locals:         1       0       0       0       0       0       0       0       0       0       0       0       
      +0       0       0       0       0       0       0       0       0       0       0       0       0       0       0       
      +0       0       0       0       0       0
  2673 ;;      Temps:          0       0       0       0       0       0       0       0       0       0       0       0       
      +0       0       0       0       0       0       0       0       0       0       0       0       0       0       0       
      +0       0       0       0       0       0
  2674 ;;      Totals:         1       0       0       0       0       0       0       0       0       0       0       0       
      +0       0       0       0       0       0       0       0       0       0       0       0       0       0       0       
      +0       0       0       0       0       0
  2675 ;;Total ram usage:        1 bytes
  2676 ;; Hardware stack levels used: 1
  2677 ;; Hardware stack levels required when called: 12
  2678 ;; This function calls:
  2679 ;;		_I2C1_Write
  2680 ;; This function is called by:
  2681 ;;		_loadPCF
  2682 ;;		_I2C_LCD_Init
  2683 ;; This function uses a non-reentrant model
  2684 ;;
  2685                           
  2686                           	psect	text21
  2687   0035D0                     __ptext21:
  2688                           	callstack 0
  2689   0035D0                     _PCF_Wr:
  2690                           	callstack 111
  2691                           
  2692                           ;incstack = 0
  2693                           ;PCF_Wr@dato stored from wreg
  2694   0035D0  6E49               	movwf	PCF_Wr@dato^(0+1280),c
  2695   0035D2                     
  2696                           ;LCD_I2C_LIB.c: 15:     I2C1_Write(DIR_PCF, dato | LED_STATUS);
  2697   0035D2  5049               	movf	PCF_Wr@dato^(0+1280),w,c
  2698   0035D4  0908               	iorlw	8
  2699   0035D6  6E47               	movwf	I2C1_Write@data^(0+1280),c
  2700   0035D8  0E27               	movlw	39
  2701   0035DA  ECD7  F016         	call	_I2C1_Write
  2702   0035DE  0012               	return		;funcret
  2703   0035E0                     __end_of_PCF_Wr:
  2704                           	callstack 0
  2705                           
  2706 ;; *************** function _I2C1_Write *****************
  2707 ;; Defined at:
  2708 ;;		line 91 in file "mcc_generated_files/examples/i2c1_master_example.c"
  2709 ;; Parameters:    Size  Location     Type
  2710 ;;  address         1    wreg     unsigned char 
  2711 ;;  data            1   21[COMRAM] unsigned char 
  2712 ;; Auto vars:     Size  Location     Type
  2713 ;;  address         1   22[COMRAM] unsigned char 
  2714 ;; Return value:  Size  Location     Type
  2715 ;;                  1    wreg      void 
  2716 ;; Registers used:
  2717 ;;		wreg, fsr2l, fsr2h, status,2, status,0, pcl, pclath, pclatu, tosl, tblptrl, tblptrh, tblptru, prodl, prodh, cstack
  2718 ;; Tracked objects:
  2719 ;;		On entry : 0/0
  2720 ;;		On exit  : 0/0
  2721 ;;		Unchanged: 0/0
  2722 ;; Data sizes:     COMRAM   BANK5   BANK6   BANK7   BANK8   BANK9  BANK10  BANK11  BANK12  BANK13  BANK14  BANK15  BANK1
      +6  BANK17  BANK18  BANK19  BANK20  BANK21  BANK22  BANK23  BANK24  BANK25  BANK26  BANK27  BANK28  BANK29  BANK30  BANK3
      +1  BANK32  BANK33  BANK34  BANK35  BANK36
  2723 ;;      Params:         1       0       0       0       0       0       0       0       0       0       0       0       
      +0       0       0       0       0       0       0       0       0       0       0       0       0       0       0       
      +0       0       0       0       0       0
  2724 ;;      Locals:         1       0       0       0       0       0       0       0       0       0       0       0       
      +0       0       0       0       0       0       0       0       0       0       0       0       0       0       0       
      +0       0       0       0       0       0
  2725 ;;      Temps:          0       0       0       0       0       0       0       0       0       0       0       0       
      +0       0       0       0       0       0       0       0       0       0       0       0       0       0       0       
      +0       0       0       0       0       0
  2726 ;;      Totals:         2       0       0       0       0       0       0       0       0       0       0       0       
      +0       0       0       0       0       0       0       0       0       0       0       0       0       0       0       
      +0       0       0       0       0       0
  2727 ;;Total ram usage:        2 bytes
  2728 ;; Hardware stack levels used: 1
  2729 ;; Hardware stack levels required when called: 11
  2730 ;; This function calls:
  2731 ;;		_I2C1_Close
  2732 ;;		_I2C1_MasterWrite
  2733 ;;		_I2C1_Open
  2734 ;;		_I2C1_SetAddressNackCallback
  2735 ;;		_I2C1_SetBuffer
  2736 ;;		_I2C1_SetDataCompleteCallback
  2737 ;; This function is called by:
  2738 ;;		_PCF_Wr
  2739 ;; This function uses a non-reentrant model
  2740 ;;
  2741                           
  2742                           	psect	text22
  2743   002DAE                     __ptext22:
  2744                           	callstack 0
  2745   002DAE                     _I2C1_Write:
  2746                           	callstack 111
  2747                           
  2748                           ;incstack = 0
  2749                           ;I2C1_Write@address stored from wreg
  2750   002DAE  6E48               	movwf	I2C1_Write@address^(0+1280),c
  2751   002DB0                     l3397:
  2752   002DB0  5048               	movf	I2C1_Write@address^(0+1280),w,c
  2753   002DB2  ECEA  F014         	call	_I2C1_Open
  2754   002DB6  0900               	iorlw	0
  2755   002DB8  B4D8               	btfsc	status,2,c
  2756   002DBA  EFE1  F016         	goto	u1061
  2757   002DBE  EFE3  F016         	goto	u1060
  2758   002DC2                     u1061:
  2759   002DC2  EFD8  F016         	goto	l3397
  2760   002DC6                     u1060:
  2761   002DC6                     
  2762                           ;mcc_generated_files/examples/i2c1_master_example.c: 97:     I2C1_SetDataCompleteCallbac
      +                          k(wr1RegCompleteHandler, &data);
  2763   002DC6  0E5C               	movlw	low _wr1RegCompleteHandler
  2764   002DC8  6E38               	movwf	I2C1_SetDataCompleteCallback@cb^(0+1280),c
  2765   002DCA  0E32               	movlw	high _wr1RegCompleteHandler
  2766   002DCC  6E39               	movwf	(I2C1_SetDataCompleteCallback@cb+1)^(0+1280),c
  2767   002DCE  0E00               	movlw	low (_wr1RegCompleteHandler shr (0+16))
  2768   002DD0  6E3A               	movwf	(I2C1_SetDataCompleteCallback@cb+2)^(0+1280),c
  2769   002DD2  0E47               	movlw	low I2C1_Write@data
  2770   002DD4  6E3B               	movwf	I2C1_SetDataCompleteCallback@ptr^(0+1280),c
  2771   002DD6  0E05               	movlw	high I2C1_Write@data
  2772   002DD8  6E3C               	movwf	(I2C1_SetDataCompleteCallback@ptr+1)^(0+1280),c
  2773   002DDA  EC68  F01A         	call	_I2C1_SetDataCompleteCallback	;wreg free
  2774   002DDE                     
  2775                           ;mcc_generated_files/examples/i2c1_master_example.c: 98:     I2C1_SetBuffer(&data, 1);
  2776   002DDE  0E47               	movlw	low I2C1_Write@data
  2777   002DE0  6E32               	movwf	I2C1_SetBuffer@buffer^(0+1280),c
  2778   002DE2  0E05               	movlw	high I2C1_Write@data
  2779   002DE4  6E33               	movwf	(I2C1_SetBuffer@buffer+1)^(0+1280),c
  2780   002DE6  0E00               	movlw	0
  2781   002DE8  6E35               	movwf	(I2C1_SetBuffer@bufferSize+1)^(0+1280),c
  2782   002DEA  0E01               	movlw	1
  2783   002DEC  6E34               	movwf	I2C1_SetBuffer@bufferSize^(0+1280),c
  2784   002DEE  EC2D  F01A         	call	_I2C1_SetBuffer	;wreg free
  2785   002DF2                     
  2786                           ;mcc_generated_files/examples/i2c1_master_example.c: 99:     I2C1_SetAddressNackCallback
      +                          (((void*)0), ((void*)0));
  2787   002DF2  0E00               	movlw	0
  2788   002DF4  6E38               	movwf	I2C1_SetAddressNackCallback@cb^(0+1280),c
  2789   002DF6  0E00               	movlw	0
  2790   002DF8  6E39               	movwf	(I2C1_SetAddressNackCallback@cb+1)^(0+1280),c
  2791   002DFA  0E00               	movlw	0
  2792   002DFC  6E3A               	movwf	(I2C1_SetAddressNackCallback@cb+2)^(0+1280),c
  2793   002DFE  0E00               	movlw	0
  2794   002E00  6E3B               	movwf	I2C1_SetAddressNackCallback@ptr^(0+1280),c
  2795   002E02  0E00               	movlw	0
  2796   002E04  6E3C               	movwf	(I2C1_SetAddressNackCallback@ptr+1)^(0+1280),c
  2797   002E06  EC4C  F01A         	call	_I2C1_SetAddressNackCallback	;wreg free
  2798   002E0A                     
  2799                           ;mcc_generated_files/examples/i2c1_master_example.c: 101:     I2C1_MasterWrite();
  2800   002E0A  EC3A  F01B         	call	_I2C1_MasterWrite	;wreg free
  2801   002E0E                     l3407:
  2802   002E0E  ECCE  F019         	call	_I2C1_Close	;wreg free
  2803   002E12  06E8               	decf	wreg,f,c
  2804   002E14  B4D8               	btfsc	status,2,c
  2805   002E16  EF0F  F017         	goto	u1071
  2806   002E1A  EF11  F017         	goto	u1070
  2807   002E1E                     u1071:
  2808   002E1E  EF07  F017         	goto	l3407
  2809   002E22                     u1070:
  2810   002E22  0012               	return		;funcret
  2811   002E24                     __end_of_I2C1_Write:
  2812                           	callstack 0
  2813                           
  2814 ;; *************** function _I2C1_SetAddressNackCallback *****************
  2815 ;; Defined at:
  2816 ;;		line 313 in file "mcc_generated_files/i2c1_master.c"
  2817 ;; Parameters:    Size  Location     Type
  2818 ;;  cb              3    6[COMRAM] PTR FTN(PTR void ,)enum 
  2819 ;;		 -> NULL(1), 
  2820 ;;  ptr             2    9[COMRAM] PTR void 
  2821 ;;		 -> NULL(0), 
  2822 ;; Auto vars:     Size  Location     Type
  2823 ;;		None
  2824 ;; Return value:  Size  Location     Type
  2825 ;;                  1    wreg      void 
  2826 ;; Registers used:
  2827 ;;		wreg, fsr2l, fsr2h, status,2, status,0, prodl, prodh, cstack
  2828 ;; Tracked objects:
  2829 ;;		On entry : 0/0
  2830 ;;		On exit  : 0/0
  2831 ;;		Unchanged: 0/0
  2832 ;; Data sizes:     COMRAM   BANK5   BANK6   BANK7   BANK8   BANK9  BANK10  BANK11  BANK12  BANK13  BANK14  BANK15  BANK1
      +6  BANK17  BANK18  BANK19  BANK20  BANK21  BANK22  BANK23  BANK24  BANK25  BANK26  BANK27  BANK28  BANK29  BANK30  BANK3
      +1  BANK32  BANK33  BANK34  BANK35  BANK36
  2833 ;;      Params:         5       0       0       0       0       0       0       0       0       0       0       0       
      +0       0       0       0       0       0       0       0       0       0       0       0       0       0       0       
      +0       0       0       0       0       0
  2834 ;;      Locals:         0       0       0       0       0       0       0       0       0       0       0       0       
      +0       0       0       0       0       0       0       0       0       0       0       0       0       0       0       
      +0       0       0       0       0       0
  2835 ;;      Temps:          0       0       0       0       0       0       0       0       0       0       0       0       
      +0       0       0       0       0       0       0       0       0       0       0       0       0       0       0       
      +0       0       0       0       0       0
  2836 ;;      Totals:         5       0       0       0       0       0       0       0       0       0       0       0       
      +0       0       0       0       0       0       0       0       0       0       0       0       0       0       0       
      +0       0       0       0       0       0
  2837 ;;Total ram usage:        5 bytes
  2838 ;; Hardware stack levels used: 1
  2839 ;; Hardware stack levels required when called: 1
  2840 ;; This function calls:
  2841 ;;		_I2C1_SetCallback
  2842 ;; This function is called by:
  2843 ;;		_I2C1_Write
  2844 ;;		_I2C1_Read1ByteRegister
  2845 ;;		_I2C1_Read2ByteRegister
  2846 ;;		_I2C1_Write1ByteRegister
  2847 ;;		_I2C1_Write2ByteRegister
  2848 ;;		_I2C1_WriteNBytes
  2849 ;;		_I2C1_ReadDataBlock
  2850 ;; This function uses a non-reentrant model
  2851 ;;
  2852                           
  2853                           	psect	text23
  2854   003498                     __ptext23:
  2855                           	callstack 0
  2856   003498                     _I2C1_SetAddressNackCallback:
  2857                           	callstack 120
  2858   003498                     
  2859                           ;mcc_generated_files/i2c1_master.c: 313: void I2C1_SetAddressNackCallback(i2c1_callback_
      +                          t cb, void *ptr);mcc_generated_files/i2c1_master.c: 314: {;mcc_generated_files/i2c1_mast
      +                          er.c: 315:     I2C1_SetCallback(I2C1_ADDR_NACK, cb, ptr);
  2860   003498  C538  F532         	movff	I2C1_SetAddressNackCallback@cb,I2C1_SetCallback@cb
  2861   00349C  C539  F533         	movff	I2C1_SetAddressNackCallback@cb+1,I2C1_SetCallback@cb+1
  2862   0034A0  C53A  F534         	movff	I2C1_SetAddressNackCallback@cb+2,I2C1_SetCallback@cb+2
  2863   0034A4  C53B  F535         	movff	I2C1_SetAddressNackCallback@ptr,I2C1_SetCallback@ptr
  2864   0034A8  C53C  F536         	movff	I2C1_SetAddressNackCallback@ptr+1,I2C1_SetCallback@ptr+1
  2865   0034AC  0E02               	movlw	2
  2866   0034AE  EC5A  F016         	call	_I2C1_SetCallback
  2867   0034B2  0012               	return		;funcret
  2868   0034B4                     __end_of_I2C1_SetAddressNackCallback:
  2869                           	callstack 0
  2870                           
  2871 ;; *************** function _I2C1_Open *****************
  2872 ;; Defined at:
  2873 ;;		line 204 in file "mcc_generated_files/i2c1_master.c"
  2874 ;; Parameters:    Size  Location     Type
  2875 ;;  address         1    wreg     unsigned char 
  2876 ;; Auto vars:     Size  Location     Type
  2877 ;;  address         1    0[COMRAM] unsigned char 
  2878 ;;  returnValue     1    1[COMRAM] enum E358
  2879 ;; Return value:  Size  Location     Type
  2880 ;;                  1    wreg      enum E358
  2881 ;; Registers used:
  2882 ;;		wreg, status,2, status,0, cstack
  2883 ;; Tracked objects:
  2884 ;;		On entry : 0/0
  2885 ;;		On exit  : 0/0
  2886 ;;		Unchanged: 0/0
  2887 ;; Data sizes:     COMRAM   BANK5   BANK6   BANK7   BANK8   BANK9  BANK10  BANK11  BANK12  BANK13  BANK14  BANK15  BANK1
      +6  BANK17  BANK18  BANK19  BANK20  BANK21  BANK22  BANK23  BANK24  BANK25  BANK26  BANK27  BANK28  BANK29  BANK30  BANK3
      +1  BANK32  BANK33  BANK34  BANK35  BANK36
  2888 ;;      Params:         0       0       0       0       0       0       0       0       0       0       0       0       
      +0       0       0       0       0       0       0       0       0       0       0       0       0       0       0       
      +0       0       0       0       0       0
  2889 ;;      Locals:         2       0       0       0       0       0       0       0       0       0       0       0       
      +0       0       0       0       0       0       0       0       0       0       0       0       0       0       0       
      +0       0       0       0       0       0
  2890 ;;      Temps:          0       0       0       0       0       0       0       0       0       0       0       0       
      +0       0       0       0       0       0       0       0       0       0       0       0       0       0       0       
      +0       0       0       0       0       0
  2891 ;;      Totals:         2       0       0       0       0       0       0       0       0       0       0       0       
      +0       0       0       0       0       0       0       0       0       0       0       0       0       0       0       
      +0       0       0       0       0       0
  2892 ;;Total ram usage:        2 bytes
  2893 ;; Hardware stack levels used: 1
  2894 ;; Hardware stack levels required when called: 1
  2895 ;; This function calls:
  2896 ;;		_I2C1_MasterClearIrq
  2897 ;;		_I2C1_MasterOpen
  2898 ;; This function is called by:
  2899 ;;		_I2C1_Write
  2900 ;;		_I2C1_Read1ByteRegister
  2901 ;;		_I2C1_Read2ByteRegister
  2902 ;;		_I2C1_Write1ByteRegister
  2903 ;;		_I2C1_Write2ByteRegister
  2904 ;;		_I2C1_WriteNBytes
  2905 ;;		_I2C1_ReadNBytes
  2906 ;;		_I2C1_ReadDataBlock
  2907 ;; This function uses a non-reentrant model
  2908 ;;
  2909                           
  2910                           	psect	text24
  2911   0029D4                     __ptext24:
  2912                           	callstack 0
  2913   0029D4                     _I2C1_Open:
  2914                           	callstack 120
  2915                           
  2916                           ;incstack = 0
  2917                           ;I2C1_Open@address stored from wreg
  2918   0029D4  6E32               	movwf	I2C1_Open@address^(0+1280),c
  2919   0029D6                     
  2920                           ;mcc_generated_files/i2c1_master.c: 204: i2c1_error_t I2C1_Open(i2c1_address_t address);
      +                          mcc_generated_files/i2c1_master.c: 205: {;mcc_generated_files/i2c1_master.c: 206:     i2
      +                          c1_error_t returnValue = I2C1_BUSY;
  2921   0029D6  0E01               	movlw	1
  2922   0029D8  6E33               	movwf	I2C1_Open@returnValue^(0+1280),c
  2923   0029DA                     
  2924                           ;mcc_generated_files/i2c1_master.c: 208:     if(!I2C1_Status.inUse)
  2925   0029DA  B62A               	btfsc	(_I2C1_Status+41)^(0+1280),3,c
  2926   0029DC  EFF2  F014         	goto	u1051
  2927   0029E0  EFF4  F014         	goto	u1050
  2928   0029E4                     u1051:
  2929   0029E4  EF39  F015         	goto	l3385
  2930   0029E8                     u1050:
  2931   0029E8                     
  2932                           ;mcc_generated_files/i2c1_master.c: 209:     {;mcc_generated_files/i2c1_master.c: 210:  
      +                                 I2C1_Status.address = address;
  2933   0029E8  C532  F523         	movff	I2C1_Open@address,_I2C1_Status+34
  2934   0029EC                     
  2935                           ;mcc_generated_files/i2c1_master.c: 211:         I2C1_Status.busy = 0;
  2936   0029EC  942A               	bcf	(_I2C1_Status+41)^(0+1280),2,c
  2937   0029EE                     
  2938                           ;mcc_generated_files/i2c1_master.c: 212:         I2C1_Status.inUse = 1;
  2939   0029EE  862A               	bsf	(_I2C1_Status+41)^(0+1280),3,c
  2940   0029F0                     
  2941                           ;mcc_generated_files/i2c1_master.c: 213:         I2C1_Status.addressNackCheck = 0;
  2942   0029F0  0EFC               	movlw	-4
  2943   0029F2  162A               	andwf	(_I2C1_Status+41)^(0+1280),f,c
  2944   0029F4                     
  2945                           ;mcc_generated_files/i2c1_master.c: 214:         I2C1_Status.state = I2C1_RESET;
  2946   0029F4  0E0F               	movlw	15
  2947   0029F6  6E28               	movwf	(_I2C1_Status+39)^(0+1280),c
  2948   0029F8                     
  2949                           ;mcc_generated_files/i2c1_master.c: 215:         I2C1_Status.time_out_value = 500;
  2950   0029F8  0E01               	movlw	1
  2951   0029FA  6E22               	movwf	(_I2C1_Status+33)^(0+1280),c
  2952   0029FC  0EF4               	movlw	244
  2953   0029FE  6E21               	movwf	(_I2C1_Status+32)^(0+1280),c
  2954   002A00                     
  2955                           ;mcc_generated_files/i2c1_master.c: 216:         I2C1_Status.bufferFree = 1;
  2956   002A00  882A               	bsf	(_I2C1_Status+41)^(0+1280),4,c
  2957   002A02                     
  2958                           ;mcc_generated_files/i2c1_master.c: 219:         I2C1_Status.callbackTable[I2C1_DATA_COM
      +                          PLETE]=I2C1_CallbackReturnStop;
  2959   002A02  0EF4               	movlw	low _I2C1_CallbackReturnStop
  2960   002A04  6E01               	movwf	_I2C1_Status^(0+1280),c
  2961   002A06  0E36               	movlw	high _I2C1_CallbackReturnStop
  2962   002A08  6E02               	movwf	(_I2C1_Status+1)^(0+1280),c
  2963   002A0A  0E00               	movlw	low (_I2C1_CallbackReturnStop shr (0+16))
  2964   002A0C  6E03               	movwf	(_I2C1_Status+2)^(0+1280),c
  2965   002A0E                     
  2966                           ;mcc_generated_files/i2c1_master.c: 220:         I2C1_Status.callbackPayload[I2C1_DATA_C
      +                          OMPLETE] = ((void*)0);
  2967   002A0E  0E00               	movlw	0
  2968   002A10  6E13               	movwf	(_I2C1_Status+18)^(0+1280),c
  2969   002A12  0E00               	movlw	0
  2970   002A14  6E14               	movwf	(_I2C1_Status+19)^(0+1280),c
  2971   002A16                     
  2972                           ;mcc_generated_files/i2c1_master.c: 221:         I2C1_Status.callbackTable[I2C1_WRITE_CO
      +                          LLISION]=I2C1_CallbackReturnStop;
  2973   002A16  0EF4               	movlw	low _I2C1_CallbackReturnStop
  2974   002A18  6E04               	movwf	(_I2C1_Status+3)^(0+1280),c
  2975   002A1A  0E36               	movlw	high _I2C1_CallbackReturnStop
  2976   002A1C  6E05               	movwf	(_I2C1_Status+4)^(0+1280),c
  2977   002A1E  0E00               	movlw	low (_I2C1_CallbackReturnStop shr (0+16))
  2978   002A20  6E06               	movwf	(_I2C1_Status+5)^(0+1280),c
  2979   002A22                     
  2980                           ;mcc_generated_files/i2c1_master.c: 222:         I2C1_Status.callbackPayload[I2C1_WRITE_
      +                          COLLISION] = ((void*)0);
  2981   002A22  0E00               	movlw	0
  2982   002A24  6E15               	movwf	(_I2C1_Status+20)^(0+1280),c
  2983   002A26  0E00               	movlw	0
  2984   002A28  6E16               	movwf	(_I2C1_Status+21)^(0+1280),c
  2985   002A2A                     
  2986                           ;mcc_generated_files/i2c1_master.c: 223:         I2C1_Status.callbackTable[I2C1_ADDR_NAC
      +                          K]=I2C1_CallbackReturnStop;
  2987   002A2A  0EF4               	movlw	low _I2C1_CallbackReturnStop
  2988   002A2C  6E07               	movwf	(_I2C1_Status+6)^(0+1280),c
  2989   002A2E  0E36               	movlw	high _I2C1_CallbackReturnStop
  2990   002A30  6E08               	movwf	(_I2C1_Status+7)^(0+1280),c
  2991   002A32  0E00               	movlw	low (_I2C1_CallbackReturnStop shr (0+16))
  2992   002A34  6E09               	movwf	(_I2C1_Status+8)^(0+1280),c
  2993   002A36                     
  2994                           ;mcc_generated_files/i2c1_master.c: 224:         I2C1_Status.callbackPayload[I2C1_ADDR_N
      +                          ACK] = ((void*)0);
  2995   002A36  0E00               	movlw	0
  2996   002A38  6E17               	movwf	(_I2C1_Status+22)^(0+1280),c
  2997   002A3A  0E00               	movlw	0
  2998   002A3C  6E18               	movwf	(_I2C1_Status+23)^(0+1280),c
  2999   002A3E                     
  3000                           ;mcc_generated_files/i2c1_master.c: 225:         I2C1_Status.callbackTable[I2C1_DATA_NAC
      +                          K]=I2C1_CallbackReturnStop;
  3001   002A3E  0EF4               	movlw	low _I2C1_CallbackReturnStop
  3002   002A40  6E0A               	movwf	(_I2C1_Status+9)^(0+1280),c
  3003   002A42  0E36               	movlw	high _I2C1_CallbackReturnStop
  3004   002A44  6E0B               	movwf	(_I2C1_Status+10)^(0+1280),c
  3005   002A46  0E00               	movlw	low (_I2C1_CallbackReturnStop shr (0+16))
  3006   002A48  6E0C               	movwf	(_I2C1_Status+11)^(0+1280),c
  3007   002A4A                     
  3008                           ;mcc_generated_files/i2c1_master.c: 226:         I2C1_Status.callbackPayload[I2C1_DATA_N
      +                          ACK] = ((void*)0);
  3009   002A4A  0E00               	movlw	0
  3010   002A4C  6E19               	movwf	(_I2C1_Status+24)^(0+1280),c
  3011   002A4E  0E00               	movlw	0
  3012   002A50  6E1A               	movwf	(_I2C1_Status+25)^(0+1280),c
  3013   002A52                     
  3014                           ;mcc_generated_files/i2c1_master.c: 227:         I2C1_Status.callbackTable[I2C1_TIMEOUT]
      +                          =I2C1_CallbackReturnReset;
  3015   002A52  0EF0               	movlw	low _I2C1_CallbackReturnReset
  3016   002A54  6E0D               	movwf	(_I2C1_Status+12)^(0+1280),c
  3017   002A56  0E36               	movlw	high _I2C1_CallbackReturnReset
  3018   002A58  6E0E               	movwf	(_I2C1_Status+13)^(0+1280),c
  3019   002A5A  0E00               	movlw	low (_I2C1_CallbackReturnReset shr (0+16))
  3020   002A5C  6E0F               	movwf	(_I2C1_Status+14)^(0+1280),c
  3021   002A5E                     
  3022                           ;mcc_generated_files/i2c1_master.c: 228:         I2C1_Status.callbackPayload[I2C1_TIMEOU
      +                          T] = ((void*)0);
  3023   002A5E  0E00               	movlw	0
  3024   002A60  6E1B               	movwf	(_I2C1_Status+26)^(0+1280),c
  3025   002A62  0E00               	movlw	0
  3026   002A64  6E1C               	movwf	(_I2C1_Status+27)^(0+1280),c
  3027   002A66                     
  3028                           ;mcc_generated_files/i2c1_master.c: 230:         I2C1_MasterClearIrq();
  3029   002A66  EC52  F01B         	call	_I2C1_MasterClearIrq	;wreg free
  3030   002A6A                     
  3031                           ;mcc_generated_files/i2c1_master.c: 231:         I2C1_MasterOpen();
  3032   002A6A  ECA4  F019         	call	_I2C1_MasterOpen	;wreg free
  3033   002A6E                     
  3034                           ;mcc_generated_files/i2c1_master.c: 232:         returnValue = I2C1_NOERR;
  3035   002A6E  0E00               	movlw	0
  3036   002A70  6E33               	movwf	I2C1_Open@returnValue^(0+1280),c
  3037   002A72                     l3385:
  3038                           
  3039                           ;mcc_generated_files/i2c1_master.c: 234:     return returnValue;
  3040   002A72  5033               	movf	I2C1_Open@returnValue^(0+1280),w,c
  3041   002A74  0012               	return		;funcret
  3042   002A76                     __end_of_I2C1_Open:
  3043                           	callstack 0
  3044                           
  3045 ;; *************** function _I2C1_MasterOpen *****************
  3046 ;; Defined at:
  3047 ;;		line 632 in file "mcc_generated_files/i2c1_master.c"
  3048 ;; Parameters:    Size  Location     Type
  3049 ;;		None
  3050 ;; Auto vars:     Size  Location     Type
  3051 ;;		None
  3052 ;; Return value:  Size  Location     Type
  3053 ;;                  1    wreg      _Bool 
  3054 ;; Registers used:
  3055 ;;		wreg, status,2
  3056 ;; Tracked objects:
  3057 ;;		On entry : 0/0
  3058 ;;		On exit  : 0/0
  3059 ;;		Unchanged: 0/0
  3060 ;; Data sizes:     COMRAM   BANK5   BANK6   BANK7   BANK8   BANK9  BANK10  BANK11  BANK12  BANK13  BANK14  BANK15  BANK1
      +6  BANK17  BANK18  BANK19  BANK20  BANK21  BANK22  BANK23  BANK24  BANK25  BANK26  BANK27  BANK28  BANK29  BANK30  BANK3
      +1  BANK32  BANK33  BANK34  BANK35  BANK36
  3061 ;;      Params:         0       0       0       0       0       0       0       0       0       0       0       0       
      +0       0       0       0       0       0       0       0       0       0       0       0       0       0       0       
      +0       0       0       0       0       0
  3062 ;;      Locals:         0       0       0       0       0       0       0       0       0       0       0       0       
      +0       0       0       0       0       0       0       0       0       0       0       0       0       0       0       
      +0       0       0       0       0       0
  3063 ;;      Temps:          0       0       0       0       0       0       0       0       0       0       0       0       
      +0       0       0       0       0       0       0       0       0       0       0       0       0       0       0       
      +0       0       0       0       0       0
  3064 ;;      Totals:         0       0       0       0       0       0       0       0       0       0       0       0       
      +0       0       0       0       0       0       0       0       0       0       0       0       0       0       0       
      +0       0       0       0       0       0
  3065 ;;Total ram usage:        0 bytes
  3066 ;; Hardware stack levels used: 1
  3067 ;; This function calls:
  3068 ;;		Nothing
  3069 ;; This function is called by:
  3070 ;;		_I2C1_Open
  3071 ;; This function uses a non-reentrant model
  3072 ;;
  3073                           
  3074                           	psect	text25
  3075   003348                     __ptext25:
  3076                           	callstack 0
  3077   003348                     _I2C1_MasterOpen:
  3078                           	callstack 120
  3079   003348                     
  3080                           ;mcc_generated_files/i2c1_master.c: 634:     if(!I2C1CON0bits.EN)
  3081   003348  0102               	movlb	2	; () banked
  3082   00334A  BF94               	btfsc	148,7,b	;volatile
  3083   00334C  EFAA  F019         	goto	u361
  3084   003350  EFAC  F019         	goto	u360
  3085   003354                     u361:
  3086   003354  EFB8  F019         	goto	l720
  3087   003358                     u360:
  3088   003358                     
  3089                           ; BSR set to: 2
  3090                           ;mcc_generated_files/i2c1_master.c: 635:     {;mcc_generated_files/i2c1_master.c: 637:  
      +                                 I2C1PIR = 0x00;
  3091   003358  0E00               	movlw	0
  3092   00335A  6F9A               	movwf	154,b	;volatile
  3093                           
  3094                           ;mcc_generated_files/i2c1_master.c: 639:         I2C1PIE = 0x00;
  3095   00335C  0E00               	movlw	0
  3096   00335E  6F9B               	movwf	155,b	;volatile
  3097                           
  3098                           ;mcc_generated_files/i2c1_master.c: 641:         I2C1ERR = 0x00;
  3099   003360  0E00               	movlw	0
  3100   003362  6F97               	movwf	151,b	;volatile
  3101   003364                     
  3102                           ; BSR set to: 2
  3103                           ;mcc_generated_files/i2c1_master.c: 643:         I2C1CNT = 0xFF;
  3104   003364  698D               	setf	141,b	;volatile
  3105                           
  3106                           ;mcc_generated_files/i2c1_master.c: 645:         RC3I2C = 0x51;
  3107   003366  0E51               	movlw	81
  3108   003368  6F87               	movwf	135,b	;volatile
  3109                           
  3110                           ;mcc_generated_files/i2c1_master.c: 647:         RC4I2C = 0x51;
  3111   00336A  0E51               	movlw	81
  3112   00336C  6F86               	movwf	134,b	;volatile
  3113   00336E                     
  3114                           ; BSR set to: 2
  3115                           ;mcc_generated_files/i2c1_master.c: 649:         I2C1CON0bits.EN = 1;
  3116   00336E  8F94               	bsf	148,7,b	;volatile
  3117   003370                     l720:
  3118                           
  3119                           ; BSR set to: 2
  3120   003370  0012               	return		;funcret
  3121   003372                     __end_of_I2C1_MasterOpen:
  3122                           	callstack 0
  3123                           
  3124 ;; *************** function _I2C1_MasterWrite *****************
  3125 ;; Defined at:
  3126 ;;		line 281 in file "mcc_generated_files/i2c1_master.c"
  3127 ;; Parameters:    Size  Location     Type
  3128 ;;		None
  3129 ;; Auto vars:     Size  Location     Type
  3130 ;;		None
  3131 ;; Return value:  Size  Location     Type
  3132 ;;                  1    wreg      enum E358
  3133 ;; Registers used:
  3134 ;;		wreg, fsr2l, fsr2h, status,2, status,0, pcl, pclath, pclatu, tosl, tblptrl, tblptrh, tblptru, prodl, prodh, cstack
  3135 ;; Tracked objects:
  3136 ;;		On entry : 0/0
  3137 ;;		On exit  : 0/0
  3138 ;;		Unchanged: 0/0
  3139 ;; Data sizes:     COMRAM   BANK5   BANK6   BANK7   BANK8   BANK9  BANK10  BANK11  BANK12  BANK13  BANK14  BANK15  BANK1
      +6  BANK17  BANK18  BANK19  BANK20  BANK21  BANK22  BANK23  BANK24  BANK25  BANK26  BANK27  BANK28  BANK29  BANK30  BANK3
      +1  BANK32  BANK33  BANK34  BANK35  BANK36
  3140 ;;      Params:         0       0       0       0       0       0       0       0       0       0       0       0       
      +0       0       0       0       0       0       0       0       0       0       0       0       0       0       0       
      +0       0       0       0       0       0
  3141 ;;      Locals:         0       0       0       0       0       0       0       0       0       0       0       0       
      +0       0       0       0       0       0       0       0       0       0       0       0       0       0       0       
      +0       0       0       0       0       0
  3142 ;;      Temps:          0       0       0       0       0       0       0       0       0       0       0       0       
      +0       0       0       0       0       0       0       0       0       0       0       0       0       0       0       
      +0       0       0       0       0       0
  3143 ;;      Totals:         0       0       0       0       0       0       0       0       0       0       0       0       
      +0       0       0       0       0       0       0       0       0       0       0       0       0       0       0       
      +0       0       0       0       0       0
  3144 ;;Total ram usage:        0 bytes
  3145 ;; Hardware stack levels used: 1
  3146 ;; Hardware stack levels required when called: 10
  3147 ;; This function calls:
  3148 ;;		_I2C1_MasterOperation
  3149 ;; This function is called by:
  3150 ;;		_I2C1_Write
  3151 ;;		_I2C1_Read1ByteRegister
  3152 ;;		_I2C1_Read2ByteRegister
  3153 ;;		_I2C1_Write1ByteRegister
  3154 ;;		_I2C1_Write2ByteRegister
  3155 ;;		_I2C1_WriteNBytes
  3156 ;;		_I2C1_ReadDataBlock
  3157 ;; This function uses a non-reentrant model
  3158 ;;
  3159                           
  3160                           	psect	text26
  3161   003674                     __ptext26:
  3162                           	callstack 0
  3163   003674                     _I2C1_MasterWrite:
  3164                           	callstack 111
  3165   003674                     
  3166                           ;mcc_generated_files/i2c1_master.c: 283:     return I2C1_MasterOperation(0);;	Return val
      +                          ue of _I2C1_MasterWrite is never used
  3167   003674  0E00               	movlw	0
  3168   003676  ECCB  F018         	call	_I2C1_MasterOperation
  3169   00367A  0012               	return		;funcret
  3170   00367C                     __end_of_I2C1_MasterWrite:
  3171                           	callstack 0
  3172                           
  3173 ;; *************** function _I2C1_MasterOperation *****************
  3174 ;; Defined at:
  3175 ;;		line 252 in file "mcc_generated_files/i2c1_master.c"
  3176 ;; Parameters:    Size  Location     Type
  3177 ;;  read            1    wreg     _Bool 
  3178 ;; Auto vars:     Size  Location     Type
  3179 ;;  read            1   19[COMRAM] _Bool 
  3180 ;;  returnValue     1   20[COMRAM] enum E358
  3181 ;; Return value:  Size  Location     Type
  3182 ;;                  1    wreg      enum E358
  3183 ;; Registers used:
  3184 ;;		wreg, fsr2l, fsr2h, status,2, status,0, pcl, pclath, pclatu, tosl, tblptrl, tblptrh, tblptru, prodl, prodh, cstack
  3185 ;; Tracked objects:
  3186 ;;		On entry : 0/0
  3187 ;;		On exit  : 0/0
  3188 ;;		Unchanged: 0/0
  3189 ;; Data sizes:     COMRAM   BANK5   BANK6   BANK7   BANK8   BANK9  BANK10  BANK11  BANK12  BANK13  BANK14  BANK15  BANK1
      +6  BANK17  BANK18  BANK19  BANK20  BANK21  BANK22  BANK23  BANK24  BANK25  BANK26  BANK27  BANK28  BANK29  BANK30  BANK3
      +1  BANK32  BANK33  BANK34  BANK35  BANK36
  3190 ;;      Params:         0       0       0       0       0       0       0       0       0       0       0       0       
      +0       0       0       0       0       0       0       0       0       0       0       0       0       0       0       
      +0       0       0       0       0       0
  3191 ;;      Locals:         2       0       0       0       0       0       0       0       0       0       0       0       
      +0       0       0       0       0       0       0       0       0       0       0       0       0       0       0       
      +0       0       0       0       0       0
  3192 ;;      Temps:          0       0       0       0       0       0       0       0       0       0       0       0       
      +0       0       0       0       0       0       0       0       0       0       0       0       0       0       0       
      +0       0       0       0       0       0
  3193 ;;      Totals:         2       0       0       0       0       0       0       0       0       0       0       0       
      +0       0       0       0       0       0       0       0       0       0       0       0       0       0       0       
      +0       0       0       0       0       0
  3194 ;;Total ram usage:        2 bytes
  3195 ;; Hardware stack levels used: 1
  3196 ;; Hardware stack levels required when called: 9
  3197 ;; This function calls:
  3198 ;;		_I2C1_DO_SEND_ADR_READ
  3199 ;;		_I2C1_DO_SEND_ADR_WRITE
  3200 ;;		_I2C1_MasterSetCounter
  3201 ;;		_I2C1_Poller
  3202 ;; This function is called by:
  3203 ;;		_I2C1_MasterWrite
  3204 ;;		_I2C1_MasterRead
  3205 ;; This function uses a non-reentrant model
  3206 ;;
  3207                           
  3208                           	psect	text27
  3209   003196                     __ptext27:
  3210                           	callstack 0
  3211   003196                     _I2C1_MasterOperation:
  3212                           	callstack 111
  3213                           
  3214                           ;incstack = 0
  3215                           ;I2C1_MasterOperation@read stored from wreg
  3216   003196  6E45               	movwf	I2C1_MasterOperation@read^(0+1280),c
  3217   003198                     
  3218                           ;mcc_generated_files/i2c1_master.c: 252: i2c1_error_t I2C1_MasterOperation(_Bool read);m
      +                          cc_generated_files/i2c1_master.c: 253: {;mcc_generated_files/i2c1_master.c: 254:     i2c
      +                          1_error_t returnValue = I2C1_BUSY;
  3219   003198  0E01               	movlw	1
  3220   00319A  6E46               	movwf	I2C1_MasterOperation@returnValue^(0+1280),c
  3221   00319C                     
  3222                           ;mcc_generated_files/i2c1_master.c: 255:     if(!I2C1_Status.busy)
  3223   00319C  B42A               	btfsc	(_I2C1_Status+41)^(0+1280),2,c
  3224   00319E  EFD3  F018         	goto	u1031
  3225   0031A2  EFD5  F018         	goto	u1030
  3226   0031A6                     u1031:
  3227   0031A6  EFEF  F018         	goto	l3337
  3228   0031AA                     u1030:
  3229   0031AA                     
  3230                           ;mcc_generated_files/i2c1_master.c: 256:     {;mcc_generated_files/i2c1_master.c: 257:  
      +                                 I2C1_Status.busy = 1;
  3231   0031AA  842A               	bsf	(_I2C1_Status+41)^(0+1280),2,c
  3232   0031AC                     
  3233                           ;mcc_generated_files/i2c1_master.c: 258:         returnValue = I2C1_NOERR;
  3234   0031AC  0E00               	movlw	0
  3235   0031AE  6E46               	movwf	I2C1_MasterOperation@returnValue^(0+1280),c
  3236   0031B0                     
  3237                           ;mcc_generated_files/i2c1_master.c: 259:         I2C1_MasterSetCounter((uint8_t) I2C1_St
      +                          atus.data_length);
  3238   0031B0  5026               	movf	(_I2C1_Status+37)^(0+1280),w,c
  3239   0031B2  EC4E  F01B         	call	_I2C1_MasterSetCounter
  3240   0031B6                     
  3241                           ;mcc_generated_files/i2c1_master.c: 261:         if(read)
  3242   0031B6  5045               	movf	I2C1_MasterOperation@read^(0+1280),w,c
  3243   0031B8  B4D8               	btfsc	status,2,c
  3244   0031BA  EFE1  F018         	goto	u1041
  3245   0031BE  EFE3  F018         	goto	u1040
  3246   0031C2                     u1041:
  3247   0031C2  EFE9  F018         	goto	l3331
  3248   0031C6                     u1040:
  3249   0031C6                     
  3250                           ;mcc_generated_files/i2c1_master.c: 262:         {;mcc_generated_files/i2c1_master.c: 26
      +                          3:             I2C1_Status.state = I2C1_RX;
  3251   0031C6  0E04               	movlw	4
  3252   0031C8  6E28               	movwf	(_I2C1_Status+39)^(0+1280),c
  3253   0031CA                     
  3254                           ;mcc_generated_files/i2c1_master.c: 264:             I2C1_DO_SEND_ADR_READ();
  3255   0031CA  ECB9  F019         	call	_I2C1_DO_SEND_ADR_READ	;wreg free
  3256                           
  3257                           ;mcc_generated_files/i2c1_master.c: 265:         }
  3258   0031CE  EFED  F018         	goto	l3335
  3259   0031D2                     l3331:
  3260                           
  3261                           ;mcc_generated_files/i2c1_master.c: 267:         {;mcc_generated_files/i2c1_master.c: 26
      +                          8:             I2C1_Status.state = I2C1_TX;
  3262   0031D2  0E03               	movlw	3
  3263   0031D4  6E28               	movwf	(_I2C1_Status+39)^(0+1280),c
  3264   0031D6                     
  3265                           ;mcc_generated_files/i2c1_master.c: 269:             I2C1_DO_SEND_ADR_WRITE();
  3266   0031D6  ECDE  F01A         	call	_I2C1_DO_SEND_ADR_WRITE	;wreg free
  3267   0031DA                     l3335:
  3268                           
  3269                           ;mcc_generated_files/i2c1_master.c: 271:         I2C1_Poller();
  3270   0031DA  EC5A  F01A         	call	_I2C1_Poller	;wreg free
  3271   0031DE                     l3337:
  3272                           
  3273                           ;mcc_generated_files/i2c1_master.c: 273:     return returnValue;
  3274   0031DE  5046               	movf	I2C1_MasterOperation@returnValue^(0+1280),w,c
  3275   0031E0  0012               	return		;funcret
  3276   0031E2                     __end_of_I2C1_MasterOperation:
  3277                           	callstack 0
  3278                           
  3279 ;; *************** function _I2C1_Poller *****************
  3280 ;; Defined at:
  3281 ;;		line 342 in file "mcc_generated_files/i2c1_master.c"
  3282 ;; Parameters:    Size  Location     Type
  3283 ;;		None
  3284 ;; Auto vars:     Size  Location     Type
  3285 ;;		None
  3286 ;; Return value:  Size  Location     Type
  3287 ;;                  1    wreg      void 
  3288 ;; Registers used:
  3289 ;;		wreg, fsr2l, fsr2h, status,2, status,0, pcl, pclath, pclatu, tosl, tblptrl, tblptrh, tblptru, prodl, prodh, cstack
  3290 ;; Tracked objects:
  3291 ;;		On entry : 0/0
  3292 ;;		On exit  : 0/0
  3293 ;;		Unchanged: 0/0
  3294 ;; Data sizes:     COMRAM   BANK5   BANK6   BANK7   BANK8   BANK9  BANK10  BANK11  BANK12  BANK13  BANK14  BANK15  BANK1
      +6  BANK17  BANK18  BANK19  BANK20  BANK21  BANK22  BANK23  BANK24  BANK25  BANK26  BANK27  BANK28  BANK29  BANK30  BANK3
      +1  BANK32  BANK33  BANK34  BANK35  BANK36
  3295 ;;      Params:         0       0       0       0       0       0       0       0       0       0       0       0       
      +0       0       0       0       0       0       0       0       0       0       0       0       0       0       0       
      +0       0       0       0       0       0
  3296 ;;      Locals:         0       0       0       0       0       0       0       0       0       0       0       0       
      +0       0       0       0       0       0       0       0       0       0       0       0       0       0       0       
      +0       0       0       0       0       0
  3297 ;;      Temps:          0       0       0       0       0       0       0       0       0       0       0       0       
      +0       0       0       0       0       0       0       0       0       0       0       0       0       0       0       
      +0       0       0       0       0       0
  3298 ;;      Totals:         0       0       0       0       0       0       0       0       0       0       0       0       
      +0       0       0       0       0       0       0       0       0       0       0       0       0       0       0       
      +0       0       0       0       0       0
  3299 ;;Total ram usage:        0 bytes
  3300 ;; Hardware stack levels used: 1
  3301 ;; Hardware stack levels required when called: 8
  3302 ;; This function calls:
  3303 ;;		_I2C1_MasterFsm
  3304 ;;		_I2C1_MasterWaitForEvent
  3305 ;; This function is called by:
  3306 ;;		_I2C1_MasterOperation
  3307 ;; This function uses a non-reentrant model
  3308 ;;
  3309                           
  3310                           	psect	text28
  3311   0034B4                     __ptext28:
  3312                           	callstack 0
  3313   0034B4                     _I2C1_Poller:
  3314                           	callstack 111
  3315   0034B4                     
  3316                           ;mcc_generated_files/i2c1_master.c: 344:     while(I2C1_Status.busy)
  3317   0034B4  EF60  F01A         	goto	l3313
  3318   0034B8                     l3309:
  3319                           
  3320                           ;mcc_generated_files/i2c1_master.c: 345:     {;mcc_generated_files/i2c1_master.c: 346:  
      +                                 I2C1_MasterWaitForEvent();
  3321   0034B8  EC4C  F018         	call	_I2C1_MasterWaitForEvent	;wreg free
  3322   0034BC                     
  3323                           ;mcc_generated_files/i2c1_master.c: 347:         I2C1_MasterFsm();
  3324   0034BC  ECBC  F017         	call	_I2C1_MasterFsm	;wreg free
  3325   0034C0                     l3313:
  3326                           
  3327                           ;mcc_generated_files/i2c1_master.c: 344:     while(I2C1_Status.busy)
  3328   0034C0  B42A               	btfsc	(_I2C1_Status+41)^(0+1280),2,c
  3329   0034C2  EF65  F01A         	goto	u1021
  3330   0034C6  EF67  F01A         	goto	u1020
  3331   0034CA                     u1021:
  3332   0034CA  EF5C  F01A         	goto	l3309
  3333   0034CE                     u1020:
  3334   0034CE  0012               	return		;funcret
  3335   0034D0                     __end_of_I2C1_Poller:
  3336                           	callstack 0
  3337                           
  3338 ;; *************** function _I2C1_MasterWaitForEvent *****************
  3339 ;; Defined at:
  3340 ;;		line 813 in file "mcc_generated_files/i2c1_master.c"
  3341 ;; Parameters:    Size  Location     Type
  3342 ;;		None
  3343 ;; Auto vars:     Size  Location     Type
  3344 ;;		None
  3345 ;; Return value:  Size  Location     Type
  3346 ;;                  1    wreg      void 
  3347 ;; Registers used:
  3348 ;;		None
  3349 ;; Tracked objects:
  3350 ;;		On entry : 0/0
  3351 ;;		On exit  : 0/0
  3352 ;;		Unchanged: 0/0
  3353 ;; Data sizes:     COMRAM   BANK5   BANK6   BANK7   BANK8   BANK9  BANK10  BANK11  BANK12  BANK13  BANK14  BANK15  BANK1
      +6  BANK17  BANK18  BANK19  BANK20  BANK21  BANK22  BANK23  BANK24  BANK25  BANK26  BANK27  BANK28  BANK29  BANK30  BANK3
      +1  BANK32  BANK33  BANK34  BANK35  BANK36
  3354 ;;      Params:         0       0       0       0       0       0       0       0       0       0       0       0       
      +0       0       0       0       0       0       0       0       0       0       0       0       0       0       0       
      +0       0       0       0       0       0
  3355 ;;      Locals:         0       0       0       0       0       0       0       0       0       0       0       0       
      +0       0       0       0       0       0       0       0       0       0       0       0       0       0       0       
      +0       0       0       0       0       0
  3356 ;;      Temps:          0       0       0       0       0       0       0       0       0       0       0       0       
      +0       0       0       0       0       0       0       0       0       0       0       0       0       0       0       
      +0       0       0       0       0       0
  3357 ;;      Totals:         0       0       0       0       0       0       0       0       0       0       0       0       
      +0       0       0       0       0       0       0       0       0       0       0       0       0       0       0       
      +0       0       0       0       0       0
  3358 ;;Total ram usage:        0 bytes
  3359 ;; Hardware stack levels used: 1
  3360 ;; This function calls:
  3361 ;;		Nothing
  3362 ;; This function is called by:
  3363 ;;		_I2C1_Poller
  3364 ;; This function uses a non-reentrant model
  3365 ;;
  3366                           
  3367                           	psect	text29
  3368   003098                     __ptext29:
  3369                           	callstack 0
  3370   003098                     _I2C1_MasterWaitForEvent:
  3371                           	callstack 118
  3372   003098                     l800:
  3373                           
  3374                           ;mcc_generated_files/i2c1_master.c: 816:     {;mcc_generated_files/i2c1_master.c: 817:  
      +                                 if(PIR7bits.I2C1TXIF)
  3375   003098  A2B5               	btfss	181,1,c	;volatile
  3376   00309A  EF51  F018         	goto	u271
  3377   00309E  EF53  F018         	goto	u270
  3378   0030A2                     u271:
  3379   0030A2  EF55  F018         	goto	l801
  3380   0030A6                     u270:
  3381   0030A6  EF78  F018         	goto	l808
  3382   0030AA                     l801:
  3383                           
  3384                           ;mcc_generated_files/i2c1_master.c: 821:         if(PIR7bits.I2C1RXIF)
  3385   0030AA  A0B5               	btfss	181,0,c	;volatile
  3386   0030AC  EF5A  F018         	goto	u281
  3387   0030B0  EF5C  F018         	goto	u280
  3388   0030B4                     u281:
  3389   0030B4  EF5E  F018         	goto	l803
  3390   0030B8                     u280:
  3391   0030B8  EF78  F018         	goto	l808
  3392   0030BC                     l803:
  3393                           
  3394                           ;mcc_generated_files/i2c1_master.c: 825:         if(I2C1PIRbits.PCIF)
  3395   0030BC  0102               	movlb	2	; () banked
  3396   0030BE  A59A               	btfss	154,2,b	;volatile
  3397   0030C0  EF64  F018         	goto	u291
  3398   0030C4  EF66  F018         	goto	u290
  3399   0030C8                     u291:
  3400   0030C8  EF68  F018         	goto	l804
  3401   0030CC                     u290:
  3402   0030CC  EF78  F018         	goto	l808
  3403   0030D0                     l804:
  3404                           
  3405                           ; BSR set to: 2
  3406                           ;mcc_generated_files/i2c1_master.c: 829:         if(I2C1PIRbits.CNTIF)
  3407   0030D0  AF9A               	btfss	154,7,b	;volatile
  3408   0030D2  EF6D  F018         	goto	u301
  3409   0030D6  EF6F  F018         	goto	u300
  3410   0030DA                     u301:
  3411   0030DA  EF71  F018         	goto	l805
  3412   0030DE                     u300:
  3413   0030DE  EF78  F018         	goto	l808
  3414   0030E2                     l805:
  3415                           
  3416                           ; BSR set to: 2
  3417                           ;mcc_generated_files/i2c1_master.c: 833:         if(I2C1ERRbits.NACKIF)
  3418   0030E2  A997               	btfss	151,4,b	;volatile
  3419   0030E4  EF76  F018         	goto	u311
  3420   0030E8  EF78  F018         	goto	u310
  3421   0030EC                     u311:
  3422   0030EC  EF4C  F018         	goto	l800
  3423   0030F0                     u310:
  3424   0030F0                     l808:
  3425   0030F0  0012               	return		;funcret
  3426   0030F2                     __end_of_I2C1_MasterWaitForEvent:
  3427                           	callstack 0
  3428                           
  3429 ;; *************** function _I2C1_MasterFsm *****************
  3430 ;; Defined at:
  3431 ;;		line 351 in file "mcc_generated_files/i2c1_master.c"
  3432 ;; Parameters:    Size  Location     Type
  3433 ;;		None
  3434 ;; Auto vars:     Size  Location     Type
  3435 ;;		None
  3436 ;; Return value:  Size  Location     Type
  3437 ;;                  1    wreg      void 
  3438 ;; Registers used:
  3439 ;;		wreg, fsr2l, fsr2h, status,2, status,0, pcl, pclath, pclatu, tosl, tblptrl, tblptrh, tblptru, prodl, prodh, cstack
  3440 ;; Tracked objects:
  3441 ;;		On entry : 0/0
  3442 ;;		On exit  : 0/0
  3443 ;;		Unchanged: 0/0
  3444 ;; Data sizes:     COMRAM   BANK5   BANK6   BANK7   BANK8   BANK9  BANK10  BANK11  BANK12  BANK13  BANK14  BANK15  BANK1
      +6  BANK17  BANK18  BANK19  BANK20  BANK21  BANK22  BANK23  BANK24  BANK25  BANK26  BANK27  BANK28  BANK29  BANK30  BANK3
      +1  BANK32  BANK33  BANK34  BANK35  BANK36
  3445 ;;      Params:         0       0       0       0       0       0       0       0       0       0       0       0       
      +0       0       0       0       0       0       0       0       0       0       0       0       0       0       0       
      +0       0       0       0       0       0
  3446 ;;      Locals:         0       0       0       0       0       0       0       0       0       0       0       0       
      +0       0       0       0       0       0       0       0       0       0       0       0       0       0       0       
      +0       0       0       0       0       0
  3447 ;;      Temps:          0       0       0       0       0       0       0       0       0       0       0       0       
      +0       0       0       0       0       0       0       0       0       0       0       0       0       0       0       
      +0       0       0       0       0       0
  3448 ;;      Totals:         0       0       0       0       0       0       0       0       0       0       0       0       
      +0       0       0       0       0       0       0       0       0       0       0       0       0       0       0       
      +0       0       0       0       0       0
  3449 ;;Total ram usage:        0 bytes
  3450 ;; Hardware stack levels used: 1
  3451 ;; Hardware stack levels required when called: 7
  3452 ;; This function calls:
  3453 ;;		_I2C1_ClearInterruptFlags
  3454 ;;		_I2C1_DO_ADDRESS_NACK
  3455 ;;		_I2C1_DO_BUS_COLLISION
  3456 ;;		_I2C1_DO_BUS_ERROR
  3457 ;;		_I2C1_DO_IDLE
  3458 ;;		_I2C1_DO_RESET
  3459 ;;		_I2C1_DO_RX
  3460 ;;		_I2C1_DO_RX_ACK
  3461 ;;		_I2C1_DO_RX_EMPTY
  3462 ;;		_I2C1_DO_RX_NACK_RESTART
  3463 ;;		_I2C1_DO_RX_NACK_STOP
  3464 ;;		_I2C1_DO_SEND_ADR_READ
  3465 ;;		_I2C1_DO_SEND_ADR_WRITE
  3466 ;;		_I2C1_DO_SEND_RESTART
  3467 ;;		_I2C1_DO_SEND_RESTART_READ
  3468 ;;		_I2C1_DO_SEND_RESTART_WRITE
  3469 ;;		_I2C1_DO_SEND_STOP
  3470 ;;		_I2C1_DO_TX
  3471 ;;		_I2C1_DO_TX_ACK
  3472 ;;		_I2C1_DO_TX_EMPTY
  3473 ;;		_I2C1_MasterIsNack
  3474 ;; This function is called by:
  3475 ;;		_I2C1_Poller
  3476 ;; This function uses a non-reentrant model
  3477 ;;
  3478                           
  3479                           	psect	text30
  3480   002F78                     __ptext30:
  3481                           	callstack 0
  3482   002F78                     _I2C1_MasterFsm:
  3483                           	callstack 111
  3484   002F78                     
  3485                           ;mcc_generated_files/i2c1_master.c: 353:     I2C1_ClearInterruptFlags();
  3486   002F78  ECA2  F018         	call	_I2C1_ClearInterruptFlags	;wreg free
  3487   002F7C                     
  3488                           ;mcc_generated_files/i2c1_master.c: 355:     if(I2C1_Status.addressNackCheck && I2C1_Mas
      +                          terIsNack())
  3489   002F7C  502A               	movf	(_I2C1_Status+41)^(0+1280),w,c
  3490   002F7E  0B03               	andlw	3
  3491   002F80  0900               	iorlw	0
  3492   002F82  B4D8               	btfsc	status,2,c
  3493   002F84  EFC6  F017         	goto	u991
  3494   002F88  EFC8  F017         	goto	u990
  3495   002F8C                     u991:
  3496   002F8C  EFD4  F017         	goto	l3305
  3497   002F90                     u990:
  3498   002F90  ECA7  F01A         	call	_I2C1_MasterIsNack	;wreg free
  3499   002F94  0900               	iorlw	0
  3500   002F96  B4D8               	btfsc	status,2,c
  3501   002F98  EFD0  F017         	goto	u1001
  3502   002F9C  EFD2  F017         	goto	u1000
  3503   002FA0                     u1001:
  3504   002FA0  EFD4  F017         	goto	l3305
  3505   002FA4                     u1000:
  3506   002FA4                     
  3507                           ;mcc_generated_files/i2c1_master.c: 356:     {;mcc_generated_files/i2c1_master.c: 357:  
      +                                 I2C1_Status.state = I2C1_ADDRESS_NACK;
  3508   002FA4  0E10               	movlw	16
  3509   002FA6  6E28               	movwf	(_I2C1_Status+39)^(0+1280),c
  3510   002FA8                     l3305:
  3511                           
  3512                           ;mcc_generated_files/i2c1_master.c: 359:     I2C1_Status.state = i2c1_fsmStateTable[I2C1
      +                          _Status.state]();
  3513   002FA8  5028               	movf	(_I2C1_Status+39)^(0+1280),w,c
  3514   002FAA  0D03               	mullw	3
  3515   002FAC  0E01               	movlw	low _i2c1_fsmStateTable
  3516   002FAE  24F3               	addwf	243,w,c
  3517   002FB0  6EF6               	movwf	tblptrl,c
  3518   002FB2  0E26               	movlw	high _i2c1_fsmStateTable
  3519   002FB4  20F4               	addwfc	244,w,c
  3520   002FB6  6EF7               	movwf	tblptrh,c
  3521   002FB8                     	if	1	;There are 3 active tblptr bytes
  3522   002FB8  6AF8               	clrf	tblptru,c
  3523   002FBA  0E00               	movlw	low (__mediumconst shr (0+16))
  3524   002FBC  22F8               	addwfc	tblptru,f,c
  3525   002FBE                     	endif
  3526   002FBE  D802               	call	u1018
  3527   002FC0  EFEF  F017         	goto	u1019
  3528   002FC4                     u1018:
  3529   002FC4  0005               	push	
  3530   002FC6  6EFA               	movwf	pclath,c
  3531   002FC8  0009               	tblrd		*+
  3532   002FCA  50F5               	movf	tablat,w,c
  3533   002FCC  6EFD               	movwf	tosl,c
  3534   002FCE  0009               	tblrd		*+
  3535   002FD0  50F5               	movf	tablat,w,c
  3536   002FD2  6EFE               	movwf	tosh,c
  3537   002FD4  0009               	tblrd		*+
  3538   002FD6  50F5               	movf	tablat,w,c
  3539   002FD8  6EFF               	movwf	tosu,c
  3540   002FDA  50FA               	movf	pclath,w,c
  3541   002FDC  0012               	return		;indir
  3542   002FDE                     u1019:
  3543   002FDE  6E28               	movwf	(_I2C1_Status+39)^(0+1280),c
  3544   002FE0  0012               	return		;funcret
  3545   002FE2                     __end_of_I2C1_MasterFsm:
  3546                           	callstack 0
  3547                           
  3548 ;; *************** function _I2C1_DO_BUS_ERROR *****************
  3549 ;; Defined at:
  3550 ;;		line 595 in file "mcc_generated_files/i2c1_master.c"
  3551 ;; Parameters:    Size  Location     Type
  3552 ;;		None
  3553 ;; Auto vars:     Size  Location     Type
  3554 ;;		None
  3555 ;; Return value:  Size  Location     Type
  3556 ;;                  1    wreg      enum E17495
  3557 ;; Registers used:
  3558 ;;		wreg, status,2, cstack
  3559 ;; Tracked objects:
  3560 ;;		On entry : 0/0
  3561 ;;		On exit  : 0/0
  3562 ;;		Unchanged: 0/0
  3563 ;; Data sizes:     COMRAM   BANK5   BANK6   BANK7   BANK8   BANK9  BANK10  BANK11  BANK12  BANK13  BANK14  BANK15  BANK1
      +6  BANK17  BANK18  BANK19  BANK20  BANK21  BANK22  BANK23  BANK24  BANK25  BANK26  BANK27  BANK28  BANK29  BANK30  BANK3
      +1  BANK32  BANK33  BANK34  BANK35  BANK36
  3564 ;;      Params:         0       0       0       0       0       0       0       0       0       0       0       0       
      +0       0       0       0       0       0       0       0       0       0       0       0       0       0       0       
      +0       0       0       0       0       0
  3565 ;;      Locals:         0       0       0       0       0       0       0       0       0       0       0       0       
      +0       0       0       0       0       0       0       0       0       0       0       0       0       0       0       
      +0       0       0       0       0       0
  3566 ;;      Temps:          0       0       0       0       0       0       0       0       0       0       0       0       
      +0       0       0       0       0       0       0       0       0       0       0       0       0       0       0       
      +0       0       0       0       0       0
  3567 ;;      Totals:         0       0       0       0       0       0       0       0       0       0       0       0       
      +0       0       0       0       0       0       0       0       0       0       0       0       0       0       0       
      +0       0       0       0       0       0
  3568 ;;Total ram usage:        0 bytes
  3569 ;; Hardware stack levels used: 1
  3570 ;; Hardware stack levels required when called: 1
  3571 ;; This function calls:
  3572 ;;		_I2C1_MasterResetBus
  3573 ;; This function is called by:
  3574 ;;		_I2C1_MasterFsm
  3575 ;; This function uses a non-reentrant model
  3576 ;;
  3577                           
  3578                           	psect	text31
  3579   00360A                     __ptext31:
  3580                           	callstack 0
  3581   00360A                     _I2C1_DO_BUS_ERROR:
  3582                           	callstack 116
  3583   00360A                     
  3584                           ;mcc_generated_files/i2c1_master.c: 597:     I2C1_MasterResetBus();
  3585   00360A  EC35  F01B         	call	_I2C1_MasterResetBus	;wreg free
  3586   00360E                     
  3587                           ;mcc_generated_files/i2c1_master.c: 598:     I2C1_Status.busy = 0;
  3588   00360E  942A               	bcf	(_I2C1_Status+41)^(0+1280),2,c
  3589   003610                     
  3590                           ;mcc_generated_files/i2c1_master.c: 599:     I2C1_Status.error = I2C1_FAIL;
  3591   003610  0E02               	movlw	2
  3592   003612  6E29               	movwf	(_I2C1_Status+40)^(0+1280),c
  3593   003614                     
  3594                           ;mcc_generated_files/i2c1_master.c: 600:     return I2C1_RESET;
  3595   003614  0E0F               	movlw	15
  3596   003616  0012               	return		;funcret
  3597   003618                     __end_of_I2C1_DO_BUS_ERROR:
  3598                           	callstack 0
  3599                           
  3600 ;; *************** function _I2C1_DO_BUS_COLLISION *****************
  3601 ;; Defined at:
  3602 ;;		line 579 in file "mcc_generated_files/i2c1_master.c"
  3603 ;; Parameters:    Size  Location     Type
  3604 ;;		None
  3605 ;; Auto vars:     Size  Location     Type
  3606 ;;		None
  3607 ;; Return value:  Size  Location     Type
  3608 ;;                  1    wreg      enum E17495
  3609 ;; Registers used:
  3610 ;;		wreg, fsr2l, fsr2h, status,2, status,0, pcl, pclath, pclatu, tosl, prodl, prodh, cstack
  3611 ;; Tracked objects:
  3612 ;;		On entry : 0/0
  3613 ;;		On exit  : 0/0
  3614 ;;		Unchanged: 0/0
  3615 ;; Data sizes:     COMRAM   BANK5   BANK6   BANK7   BANK8   BANK9  BANK10  BANK11  BANK12  BANK13  BANK14  BANK15  BANK1
      +6  BANK17  BANK18  BANK19  BANK20  BANK21  BANK22  BANK23  BANK24  BANK25  BANK26  BANK27  BANK28  BANK29  BANK30  BANK3
      +1  BANK32  BANK33  BANK34  BANK35  BANK36
  3616 ;;      Params:         0       0       0       0       0       0       0       0       0       0       0       0       
      +0       0       0       0       0       0       0       0       0       0       0       0       0       0       0       
      +0       0       0       0       0       0
  3617 ;;      Locals:         0       0       0       0       0       0       0       0       0       0       0       0       
      +0       0       0       0       0       0       0       0       0       0       0       0       0       0       0       
      +0       0       0       0       0       0
  3618 ;;      Temps:          2       0       0       0       0       0       0       0       0       0       0       0       
      +0       0       0       0       0       0       0       0       0       0       0       0       0       0       0       
      +0       0       0       0       0       0
  3619 ;;      Totals:         2       0       0       0       0       0       0       0       0       0       0       0       
      +0       0       0       0       0       0       0       0       0       0       0       0       0       0       0       
      +0       0       0       0       0       0
  3620 ;;Total ram usage:        2 bytes
  3621 ;; Hardware stack levels used: 1
  3622 ;; Hardware stack levels required when called: 6
  3623 ;; This function calls:
  3624 ;;		NULL
  3625 ;;		_I2C1_CallbackReturnReset
  3626 ;;		_I2C1_CallbackReturnStop
  3627 ;;		_I2C1_DO_RESET
  3628 ;;		_I2C1_DO_SEND_RESTART_READ
  3629 ;;		_I2C1_DO_SEND_RESTART_WRITE
  3630 ;;		_I2C1_MasterClearIrq
  3631 ;;		_rd1RegCompleteHandler
  3632 ;;		_rd2RegCompleteHandler
  3633 ;;		_rdBlkRegCompleteHandler
  3634 ;;		_wr1RegCompleteHandler
  3635 ;;		_wr2RegCompleteHandler
  3636 ;; This function is called by:
  3637 ;;		_I2C1_MasterFsm
  3638 ;; This function uses a non-reentrant model
  3639 ;;
  3640                           
  3641                           	psect	text32
  3642   002E98                     __ptext32:
  3643                           	callstack 0
  3644   002E98                     _I2C1_DO_BUS_COLLISION:
  3645                           	callstack 111
  3646   002E98                     
  3647                           ;mcc_generated_files/i2c1_master.c: 582:     I2C1_MasterClearIrq();
  3648   002E98  EC52  F01B         	call	_I2C1_MasterClearIrq	;wreg free
  3649   002E9C                     
  3650                           ;mcc_generated_files/i2c1_master.c: 584:     I2C1_Status.error = I2C1_FAIL;
  3651   002E9C  0E02               	movlw	2
  3652   002E9E  6E29               	movwf	(_I2C1_Status+40)^(0+1280),c
  3653                           
  3654                           ;mcc_generated_files/i2c1_master.c: 585:     switch (I2C1_Status.callbackTable[I2C1_WRIT
      +                          E_COLLISION](I2C1_Status.callbackPayload[I2C1_WRITE_COLLISION])) {
  3655   002EA0  EF5E  F017         	goto	l3291
  3656   002EA4                     l3277:
  3657                           
  3658                           ;mcc_generated_files/i2c1_master.c: 587:         return I2C1_DO_SEND_RESTART_READ();
  3659   002EA4  EC1A  F01B         	call	_I2C1_DO_SEND_RESTART_READ	;wreg free
  3660   002EA8  EF85  F017         	goto	l695
  3661   002EAC                     l3281:
  3662                           
  3663                           ;mcc_generated_files/i2c1_master.c: 589:         return I2C1_DO_SEND_RESTART_WRITE();
  3664   002EAC  EC76  F01B         	call	_I2C1_DO_SEND_RESTART_WRITE	;wreg free
  3665   002EB0  EF85  F017         	goto	l695
  3666   002EB4                     l3285:
  3667                           
  3668                           ;mcc_generated_files/i2c1_master.c: 591:         return I2C1_DO_RESET();
  3669   002EB4  EC0C  F01B         	call	_I2C1_DO_RESET	;wreg free
  3670   002EB8  EF85  F017         	goto	l695
  3671   002EBC                     l3291:
  3672   002EBC  C515  F53D         	movff	_I2C1_Status+20,I2C1_CallbackReturnReset@funPtr
  3673   002EC0  C516  F53E         	movff	_I2C1_Status+21,I2C1_CallbackReturnReset@funPtr+1
  3674   002EC4  EE21  F104         	lfsr	2,_I2C1_Status+3
  3675   002EC8  D802               	call	u988
  3676   002ECA  EF71  F017         	goto	u989
  3677   002ECE                     u988:
  3678   002ECE  0005               	push	
  3679   002ED0  6EFA               	movwf	pclath,c
  3680   002ED2  50DE               	movf	postinc2,w,c
  3681   002ED4  6EFD               	movwf	tosl,c
  3682   002ED6  50DE               	movf	postinc2,w,c
  3683   002ED8  6EFE               	movwf	tosh,c
  3684   002EDA  50DE               	movf	postinc2,w,c
  3685   002EDC  6EFF               	movwf	tosu,c
  3686   002EDE  50FA               	movf	pclath,w,c
  3687   002EE0  0012               	return		;indir
  3688   002EE2                     u989:
  3689   002EE2  6E3F               	movwf	??_I2C1_DO_BUS_COLLISION^(0+1280),c
  3690   002EE4  6A40               	clrf	(??_I2C1_DO_BUS_COLLISION+1)^(0+1280),c
  3691                           
  3692                           ; Switch on 2 bytes has been partitioned into a top level switch of size 1, and 1 sub-sw
      +                          itches
  3693                           ; Switch size 1, requested type "simple"
  3694                           ; Number of cases is 1, Range of values is 0 to 0
  3695                           ; switch strategies available:
  3696                           ; Name         Instructions Cycles
  3697                           ; simple_byte            4     3 (average)
  3698                           ;	Chosen strategy is simple_byte
  3699   002EE6  5040               	movf	(??_I2C1_DO_BUS_COLLISION+1)^(0+1280),w,c
  3700   002EE8  0A00               	xorlw	0	; case 0
  3701   002EEA  B4D8               	btfsc	status,2,c
  3702   002EEC  EF7A  F017         	goto	l3847
  3703   002EF0  EF5A  F017         	goto	l3285
  3704   002EF4                     l3847:
  3705                           
  3706                           ; Switch size 1, requested type "simple"
  3707                           ; Number of cases is 2, Range of values is 2 to 3
  3708                           ; switch strategies available:
  3709                           ; Name         Instructions Cycles
  3710                           ; simple_byte            7     4 (average)
  3711                           ;	Chosen strategy is simple_byte
  3712   002EF4  503F               	movf	??_I2C1_DO_BUS_COLLISION^(0+1280),w,c
  3713   002EF6  0A02               	xorlw	2	; case 2
  3714   002EF8  B4D8               	btfsc	status,2,c
  3715   002EFA  EF52  F017         	goto	l3277
  3716   002EFE  0A01               	xorlw	1	; case 3
  3717   002F00  B4D8               	btfsc	status,2,c
  3718   002F02  EF56  F017         	goto	l3281
  3719   002F06  EF5A  F017         	goto	l3285
  3720   002F0A                     l695:
  3721   002F0A  0012               	return		;funcret
  3722   002F0C                     __end_of_I2C1_DO_BUS_COLLISION:
  3723                           	callstack 0
  3724                           
  3725 ;; *************** function _I2C1_DO_ADDRESS_NACK *****************
  3726 ;; Defined at:
  3727 ;;		line 564 in file "mcc_generated_files/i2c1_master.c"
  3728 ;; Parameters:    Size  Location     Type
  3729 ;;		None
  3730 ;; Auto vars:     Size  Location     Type
  3731 ;;		None
  3732 ;; Return value:  Size  Location     Type
  3733 ;;                  1    wreg      enum E17495
  3734 ;; Registers used:
  3735 ;;		wreg, fsr2l, fsr2h, status,2, status,0, pcl, pclath, pclatu, tosl, prodl, prodh, cstack
  3736 ;; Tracked objects:
  3737 ;;		On entry : 0/0
  3738 ;;		On exit  : 0/0
  3739 ;;		Unchanged: 0/0
  3740 ;; Data sizes:     COMRAM   BANK5   BANK6   BANK7   BANK8   BANK9  BANK10  BANK11  BANK12  BANK13  BANK14  BANK15  BANK1
      +6  BANK17  BANK18  BANK19  BANK20  BANK21  BANK22  BANK23  BANK24  BANK25  BANK26  BANK27  BANK28  BANK29  BANK30  BANK3
      +1  BANK32  BANK33  BANK34  BANK35  BANK36
  3741 ;;      Params:         0       0       0       0       0       0       0       0       0       0       0       0       
      +0       0       0       0       0       0       0       0       0       0       0       0       0       0       0       
      +0       0       0       0       0       0
  3742 ;;      Locals:         0       0       0       0       0       0       0       0       0       0       0       0       
      +0       0       0       0       0       0       0       0       0       0       0       0       0       0       0       
      +0       0       0       0       0       0
  3743 ;;      Temps:          2       0       0       0       0       0       0       0       0       0       0       0       
      +0       0       0       0       0       0       0       0       0       0       0       0       0       0       0       
      +0       0       0       0       0       0
  3744 ;;      Totals:         2       0       0       0       0       0       0       0       0       0       0       0       
      +0       0       0       0       0       0       0       0       0       0       0       0       0       0       0       
      +0       0       0       0       0       0
  3745 ;;Total ram usage:        2 bytes
  3746 ;; Hardware stack levels used: 1
  3747 ;; Hardware stack levels required when called: 3
  3748 ;; This function calls:
  3749 ;;		NULL
  3750 ;;		_I2C1_CallbackReturnReset
  3751 ;;		_I2C1_CallbackReturnStop
  3752 ;;		_I2C1_DO_SEND_RESTART
  3753 ;;		_rd1RegCompleteHandler
  3754 ;;		_rd2RegCompleteHandler
  3755 ;;		_rdBlkRegCompleteHandler
  3756 ;;		_wr1RegCompleteHandler
  3757 ;;		_wr2RegCompleteHandler
  3758 ;; This function is called by:
  3759 ;;		_I2C1_MasterFsm
  3760 ;; This function uses a non-reentrant model
  3761 ;;
  3762                           
  3763                           	psect	text33
  3764   002F0C                     __ptext33:
  3765                           	callstack 0
  3766   002F0C                     _I2C1_DO_ADDRESS_NACK:
  3767                           	callstack 114
  3768   002F0C                     
  3769                           ;mcc_generated_files/i2c1_master.c: 566:     I2C1_Status.addressNackCheck = 0;
  3770   002F0C  0EFC               	movlw	-4
  3771   002F0E  162A               	andwf	(_I2C1_Status+41)^(0+1280),f,c
  3772                           
  3773                           ;mcc_generated_files/i2c1_master.c: 567:     I2C1_Status.error = I2C1_FAIL;
  3774   002F10  0E02               	movlw	2
  3775   002F12  6E29               	movwf	(_I2C1_Status+40)^(0+1280),c
  3776   002F14                     
  3777                           ;mcc_generated_files/i2c1_master.c: 568:     I2C1_Status.busy = 0;
  3778   002F14  942A               	bcf	(_I2C1_Status+41)^(0+1280),2,c
  3779                           
  3780                           ;mcc_generated_files/i2c1_master.c: 569:     switch(I2C1_Status.callbackTable[I2C1_ADDR_
      +                          NACK](I2C1_Status.callbackPayload[I2C1_ADDR_NACK]))
  3781   002F16  EF94  F017         	goto	l3267
  3782   002F1A                     l3257:
  3783                           
  3784                           ;mcc_generated_files/i2c1_master.c: 573:             return I2C1_DO_SEND_RESTART();
  3785   002F1A  EC74  F01B         	call	_I2C1_DO_SEND_RESTART	;wreg free
  3786   002F1E  EFBB  F017         	goto	l688
  3787   002F22                     l3261:
  3788                           
  3789                           ;mcc_generated_files/i2c1_master.c: 575:             return I2C1_RESET;
  3790   002F22  0E0F               	movlw	15
  3791   002F24  EFBB  F017         	goto	l688
  3792   002F28                     l3267:
  3793   002F28  C517  F53D         	movff	_I2C1_Status+22,I2C1_CallbackReturnReset@funPtr
  3794   002F2C  C518  F53E         	movff	_I2C1_Status+23,I2C1_CallbackReturnReset@funPtr+1
  3795   002F30  EE21  F107         	lfsr	2,_I2C1_Status+6
  3796   002F34  D802               	call	u978
  3797   002F36  EFA7  F017         	goto	u979
  3798   002F3A                     u978:
  3799   002F3A  0005               	push	
  3800   002F3C  6EFA               	movwf	pclath,c
  3801   002F3E  50DE               	movf	postinc2,w,c
  3802   002F40  6EFD               	movwf	tosl,c
  3803   002F42  50DE               	movf	postinc2,w,c
  3804   002F44  6EFE               	movwf	tosh,c
  3805   002F46  50DE               	movf	postinc2,w,c
  3806   002F48  6EFF               	movwf	tosu,c
  3807   002F4A  50FA               	movf	pclath,w,c
  3808   002F4C  0012               	return		;indir
  3809   002F4E                     u979:
  3810   002F4E  6E3F               	movwf	??_I2C1_DO_ADDRESS_NACK^(0+1280),c
  3811   002F50  6A40               	clrf	(??_I2C1_DO_ADDRESS_NACK+1)^(0+1280),c
  3812                           
  3813                           ; Switch on 2 bytes has been partitioned into a top level switch of size 1, and 1 sub-sw
      +                          itches
  3814                           ; Switch size 1, requested type "simple"
  3815                           ; Number of cases is 1, Range of values is 0 to 0
  3816                           ; switch strategies available:
  3817                           ; Name         Instructions Cycles
  3818                           ; simple_byte            4     3 (average)
  3819                           ;	Chosen strategy is simple_byte
  3820   002F52  5040               	movf	(??_I2C1_DO_ADDRESS_NACK+1)^(0+1280),w,c
  3821   002F54  0A00               	xorlw	0	; case 0
  3822   002F56  B4D8               	btfsc	status,2,c
  3823   002F58  EFB0  F017         	goto	l3849
  3824   002F5C  EF91  F017         	goto	l3261
  3825   002F60                     l3849:
  3826                           
  3827                           ; Switch size 1, requested type "simple"
  3828                           ; Number of cases is 2, Range of values is 2 to 3
  3829                           ; switch strategies available:
  3830                           ; Name         Instructions Cycles
  3831                           ; simple_byte            7     4 (average)
  3832                           ;	Chosen strategy is simple_byte
  3833   002F60  503F               	movf	??_I2C1_DO_ADDRESS_NACK^(0+1280),w,c
  3834   002F62  0A02               	xorlw	2	; case 2
  3835   002F64  B4D8               	btfsc	status,2,c
  3836   002F66  EF8D  F017         	goto	l3257
  3837   002F6A  0A01               	xorlw	1	; case 3
  3838   002F6C  B4D8               	btfsc	status,2,c
  3839   002F6E  EF8D  F017         	goto	l3257
  3840   002F72  EF91  F017         	goto	l3261
  3841   002F76                     l688:
  3842   002F76  0012               	return		;funcret
  3843   002F78                     __end_of_I2C1_DO_ADDRESS_NACK:
  3844                           	callstack 0
  3845                           
  3846 ;; *************** function _I2C1_DO_RESET *****************
  3847 ;; Defined at:
  3848 ;;		line 557 in file "mcc_generated_files/i2c1_master.c"
  3849 ;; Parameters:    Size  Location     Type
  3850 ;;		None
  3851 ;; Auto vars:     Size  Location     Type
  3852 ;;		None
  3853 ;; Return value:  Size  Location     Type
  3854 ;;                  1    wreg      enum E17495
  3855 ;; Registers used:
  3856 ;;		wreg, status,2, cstack
  3857 ;; Tracked objects:
  3858 ;;		On entry : 0/0
  3859 ;;		On exit  : 0/0
  3860 ;;		Unchanged: 0/0
  3861 ;; Data sizes:     COMRAM   BANK5   BANK6   BANK7   BANK8   BANK9  BANK10  BANK11  BANK12  BANK13  BANK14  BANK15  BANK1
      +6  BANK17  BANK18  BANK19  BANK20  BANK21  BANK22  BANK23  BANK24  BANK25  BANK26  BANK27  BANK28  BANK29  BANK30  BANK3
      +1  BANK32  BANK33  BANK34  BANK35  BANK36
  3862 ;;      Params:         0       0       0       0       0       0       0       0       0       0       0       0       
      +0       0       0       0       0       0       0       0       0       0       0       0       0       0       0       
      +0       0       0       0       0       0
  3863 ;;      Locals:         0       0       0       0       0       0       0       0       0       0       0       0       
      +0       0       0       0       0       0       0       0       0       0       0       0       0       0       0       
      +0       0       0       0       0       0
  3864 ;;      Temps:          0       0       0       0       0       0       0       0       0       0       0       0       
      +0       0       0       0       0       0       0       0       0       0       0       0       0       0       0       
      +0       0       0       0       0       0
  3865 ;;      Totals:         0       0       0       0       0       0       0       0       0       0       0       0       
      +0       0       0       0       0       0       0       0       0       0       0       0       0       0       0       
      +0       0       0       0       0       0
  3866 ;;Total ram usage:        0 bytes
  3867 ;; Hardware stack levels used: 1
  3868 ;; Hardware stack levels required when called: 1
  3869 ;; This function calls:
  3870 ;;		_I2C1_MasterResetBus
  3871 ;; This function is called by:
  3872 ;;		_I2C1_DO_BUS_COLLISION
  3873 ;;		_I2C1_MasterFsm
  3874 ;; This function uses a non-reentrant model
  3875 ;;
  3876                           
  3877                           	psect	text34
  3878   003618                     __ptext34:
  3879                           	callstack 0
  3880   003618                     _I2C1_DO_RESET:
  3881                           	callstack 116
  3882   003618                     
  3883                           ;mcc_generated_files/i2c1_master.c: 559:     I2C1_MasterResetBus();
  3884   003618  EC35  F01B         	call	_I2C1_MasterResetBus	;wreg free
  3885   00361C                     
  3886                           ;mcc_generated_files/i2c1_master.c: 560:     I2C1_Status.busy = 0;
  3887   00361C  942A               	bcf	(_I2C1_Status+41)^(0+1280),2,c
  3888   00361E                     
  3889                           ;mcc_generated_files/i2c1_master.c: 561:     I2C1_Status.error = I2C1_NOERR;
  3890   00361E  0E00               	movlw	0
  3891   003620  6E29               	movwf	(_I2C1_Status+40)^(0+1280),c
  3892   003622                     
  3893                           ;mcc_generated_files/i2c1_master.c: 562:     return I2C1_RESET;
  3894   003622  0E0F               	movlw	15
  3895   003624  0012               	return		;funcret
  3896   003626                     __end_of_I2C1_DO_RESET:
  3897                           	callstack 0
  3898                           
  3899 ;; *************** function _I2C1_DO_RX_NACK_RESTART *****************
  3900 ;; Defined at:
  3901 ;;		line 551 in file "mcc_generated_files/i2c1_master.c"
  3902 ;; Parameters:    Size  Location     Type
  3903 ;;		None
  3904 ;; Auto vars:     Size  Location     Type
  3905 ;;		None
  3906 ;; Return value:  Size  Location     Type
  3907 ;;                  1    wreg      enum E17495
  3908 ;; Registers used:
  3909 ;;		wreg, cstack
  3910 ;; Tracked objects:
  3911 ;;		On entry : 0/0
  3912 ;;		On exit  : 0/0
  3913 ;;		Unchanged: 0/0
  3914 ;; Data sizes:     COMRAM   BANK5   BANK6   BANK7   BANK8   BANK9  BANK10  BANK11  BANK12  BANK13  BANK14  BANK15  BANK1
      +6  BANK17  BANK18  BANK19  BANK20  BANK21  BANK22  BANK23  BANK24  BANK25  BANK26  BANK27  BANK28  BANK29  BANK30  BANK3
      +1  BANK32  BANK33  BANK34  BANK35  BANK36
  3915 ;;      Params:         0       0       0       0       0       0       0       0       0       0       0       0       
      +0       0       0       0       0       0       0       0       0       0       0       0       0       0       0       
      +0       0       0       0       0       0
  3916 ;;      Locals:         0       0       0       0       0       0       0       0       0       0       0       0       
      +0       0       0       0       0       0       0       0       0       0       0       0       0       0       0       
      +0       0       0       0       0       0
  3917 ;;      Temps:          0       0       0       0       0       0       0       0       0       0       0       0       
      +0       0       0       0       0       0       0       0       0       0       0       0       0       0       0       
      +0       0       0       0       0       0
  3918 ;;      Totals:         0       0       0       0       0       0       0       0       0       0       0       0       
      +0       0       0       0       0       0       0       0       0       0       0       0       0       0       0       
      +0       0       0       0       0       0
  3919 ;;Total ram usage:        0 bytes
  3920 ;; Hardware stack levels used: 1
  3921 ;; Hardware stack levels required when called: 1
  3922 ;; This function calls:
  3923 ;;		_I2C1_MasterSendNack
  3924 ;; This function is called by:
  3925 ;;		_I2C1_MasterFsm
  3926 ;; This function uses a non-reentrant model
  3927 ;;
  3928                           
  3929                           	psect	text35
  3930   00367C                     __ptext35:
  3931                           	callstack 0
  3932   00367C                     _I2C1_DO_RX_NACK_RESTART:
  3933                           	callstack 116
  3934   00367C                     
  3935                           ;mcc_generated_files/i2c1_master.c: 553:     I2C1_MasterSendNack();
  3936   00367C  EC5C  F01B         	call	_I2C1_MasterSendNack	;wreg free
  3937   003680                     
  3938                           ;mcc_generated_files/i2c1_master.c: 554:     return I2C1_SEND_RESTART;
  3939   003680  0E09               	movlw	9
  3940   003682  0012               	return		;funcret
  3941   003684                     __end_of_I2C1_DO_RX_NACK_RESTART:
  3942                           	callstack 0
  3943                           
  3944 ;; *************** function _I2C1_DO_RX_NACK_STOP *****************
  3945 ;; Defined at:
  3946 ;;		line 544 in file "mcc_generated_files/i2c1_master.c"
  3947 ;; Parameters:    Size  Location     Type
  3948 ;;		None
  3949 ;; Auto vars:     Size  Location     Type
  3950 ;;		None
  3951 ;; Return value:  Size  Location     Type
  3952 ;;                  1    wreg      enum E17495
  3953 ;; Registers used:
  3954 ;;		wreg, status,2, cstack
  3955 ;; Tracked objects:
  3956 ;;		On entry : 0/0
  3957 ;;		On exit  : 0/0
  3958 ;;		Unchanged: 0/0
  3959 ;; Data sizes:     COMRAM   BANK5   BANK6   BANK7   BANK8   BANK9  BANK10  BANK11  BANK12  BANK13  BANK14  BANK15  BANK1
      +6  BANK17  BANK18  BANK19  BANK20  BANK21  BANK22  BANK23  BANK24  BANK25  BANK26  BANK27  BANK28  BANK29  BANK30  BANK3
      +1  BANK32  BANK33  BANK34  BANK35  BANK36
  3960 ;;      Params:         0       0       0       0       0       0       0       0       0       0       0       0       
      +0       0       0       0       0       0       0       0       0       0       0       0       0       0       0       
      +0       0       0       0       0       0
  3961 ;;      Locals:         0       0       0       0       0       0       0       0       0       0       0       0       
      +0       0       0       0       0       0       0       0       0       0       0       0       0       0       0       
      +0       0       0       0       0       0
  3962 ;;      Temps:          0       0       0       0       0       0       0       0       0       0       0       0       
      +0       0       0       0       0       0       0       0       0       0       0       0       0       0       0       
      +0       0       0       0       0       0
  3963 ;;      Totals:         0       0       0       0       0       0       0       0       0       0       0       0       
      +0       0       0       0       0       0       0       0       0       0       0       0       0       0       0       
      +0       0       0       0       0       0
  3964 ;;Total ram usage:        0 bytes
  3965 ;; Hardware stack levels used: 1
  3966 ;; Hardware stack levels required when called: 1
  3967 ;; This function calls:
  3968 ;;		_I2C1_DO_IDLE
  3969 ;;		_I2C1_MasterSendNack
  3970 ;;		_I2C1_MasterStop
  3971 ;; This function is called by:
  3972 ;;		_I2C1_MasterFsm
  3973 ;; This function uses a non-reentrant model
  3974 ;;
  3975                           
  3976                           	psect	text36
  3977   003626                     __ptext36:
  3978                           	callstack 0
  3979   003626                     _I2C1_DO_RX_NACK_STOP:
  3980                           	callstack 116
  3981   003626                     
  3982                           ;mcc_generated_files/i2c1_master.c: 546:     I2C1_MasterSendNack();
  3983   003626  EC5C  F01B         	call	_I2C1_MasterSendNack	;wreg free
  3984                           
  3985                           ;mcc_generated_files/i2c1_master.c: 547:     I2C1_MasterStop();
  3986   00362A  EC59  F01B         	call	_I2C1_MasterStop	;wreg free
  3987   00362E                     
  3988                           ;mcc_generated_files/i2c1_master.c: 548:     return I2C1_DO_IDLE();
  3989   00362E  EC30  F01B         	call	_I2C1_DO_IDLE	;wreg free
  3990   003632  0012               	return		;funcret
  3991   003634                     __end_of_I2C1_DO_RX_NACK_STOP:
  3992                           	callstack 0
  3993                           
  3994 ;; *************** function _I2C1_DO_RX_ACK *****************
  3995 ;; Defined at:
  3996 ;;		line 532 in file "mcc_generated_files/i2c1_master.c"
  3997 ;; Parameters:    Size  Location     Type
  3998 ;;		None
  3999 ;; Auto vars:     Size  Location     Type
  4000 ;;		None
  4001 ;; Return value:  Size  Location     Type
  4002 ;;                  1    wreg      enum E17495
  4003 ;; Registers used:
  4004 ;;		wreg, cstack
  4005 ;; Tracked objects:
  4006 ;;		On entry : 0/0
  4007 ;;		On exit  : 0/0
  4008 ;;		Unchanged: 0/0
  4009 ;; Data sizes:     COMRAM   BANK5   BANK6   BANK7   BANK8   BANK9  BANK10  BANK11  BANK12  BANK13  BANK14  BANK15  BANK1
      +6  BANK17  BANK18  BANK19  BANK20  BANK21  BANK22  BANK23  BANK24  BANK25  BANK26  BANK27  BANK28  BANK29  BANK30  BANK3
      +1  BANK32  BANK33  BANK34  BANK35  BANK36
  4010 ;;      Params:         0       0       0       0       0       0       0       0       0       0       0       0       
      +0       0       0       0       0       0       0       0       0       0       0       0       0       0       0       
      +0       0       0       0       0       0
  4011 ;;      Locals:         0       0       0       0       0       0       0       0       0       0       0       0       
      +0       0       0       0       0       0       0       0       0       0       0       0       0       0       0       
      +0       0       0       0       0       0
  4012 ;;      Temps:          0       0       0       0       0       0       0       0       0       0       0       0       
      +0       0       0       0       0       0       0       0       0       0       0       0       0       0       0       
      +0       0       0       0       0       0
  4013 ;;      Totals:         0       0       0       0       0       0       0       0       0       0       0       0       
      +0       0       0       0       0       0       0       0       0       0       0       0       0       0       0       
      +0       0       0       0       0       0
  4014 ;;Total ram usage:        0 bytes
  4015 ;; Hardware stack levels used: 1
  4016 ;; Hardware stack levels required when called: 1
  4017 ;; This function calls:
  4018 ;;		_I2C1_MasterSendAck
  4019 ;; This function is called by:
  4020 ;;		_I2C1_MasterFsm
  4021 ;; This function uses a non-reentrant model
  4022 ;;
  4023                           
  4024                           	psect	text37
  4025   003684                     __ptext37:
  4026                           	callstack 0
  4027   003684                     _I2C1_DO_RX_ACK:
  4028                           	callstack 116
  4029   003684                     
  4030                           ;mcc_generated_files/i2c1_master.c: 534:     I2C1_MasterSendAck();
  4031   003684  EC5F  F01B         	call	_I2C1_MasterSendAck	;wreg free
  4032   003688                     
  4033                           ;mcc_generated_files/i2c1_master.c: 535:     return I2C1_RX;
  4034   003688  0E04               	movlw	4
  4035   00368A  0012               	return		;funcret
  4036   00368C                     __end_of_I2C1_DO_RX_ACK:
  4037                           	callstack 0
  4038                           
  4039 ;; *************** function _I2C1_DO_SEND_STOP *****************
  4040 ;; Defined at:
  4041 ;;		line 521 in file "mcc_generated_files/i2c1_master.c"
  4042 ;; Parameters:    Size  Location     Type
  4043 ;;		None
  4044 ;; Auto vars:     Size  Location     Type
  4045 ;;		None
  4046 ;; Return value:  Size  Location     Type
  4047 ;;                  1    wreg      enum E17495
  4048 ;; Registers used:
  4049 ;;		wreg, status,2, cstack
  4050 ;; Tracked objects:
  4051 ;;		On entry : 0/0
  4052 ;;		On exit  : 0/0
  4053 ;;		Unchanged: 0/0
  4054 ;; Data sizes:     COMRAM   BANK5   BANK6   BANK7   BANK8   BANK9  BANK10  BANK11  BANK12  BANK13  BANK14  BANK15  BANK1
      +6  BANK17  BANK18  BANK19  BANK20  BANK21  BANK22  BANK23  BANK24  BANK25  BANK26  BANK27  BANK28  BANK29  BANK30  BANK3
      +1  BANK32  BANK33  BANK34  BANK35  BANK36
  4055 ;;      Params:         0       0       0       0       0       0       0       0       0       0       0       0       
      +0       0       0       0       0       0       0       0       0       0       0       0       0       0       0       
      +0       0       0       0       0       0
  4056 ;;      Locals:         0       0       0       0       0       0       0       0       0       0       0       0       
      +0       0       0       0       0       0       0       0       0       0       0       0       0       0       0       
      +0       0       0       0       0       0
  4057 ;;      Temps:          0       0       0       0       0       0       0       0       0       0       0       0       
      +0       0       0       0       0       0       0       0       0       0       0       0       0       0       0       
      +0       0       0       0       0       0
  4058 ;;      Totals:         0       0       0       0       0       0       0       0       0       0       0       0       
      +0       0       0       0       0       0       0       0       0       0       0       0       0       0       0       
      +0       0       0       0       0       0
  4059 ;;Total ram usage:        0 bytes
  4060 ;; Hardware stack levels used: 1
  4061 ;; Hardware stack levels required when called: 1
  4062 ;; This function calls:
  4063 ;;		_I2C1_MasterGetCounter
  4064 ;;		_I2C1_MasterSendTxData
  4065 ;;		_I2C1_MasterSetCounter
  4066 ;;		_I2C1_MasterStop
  4067 ;; This function is called by:
  4068 ;;		_I2C1_MasterFsm
  4069 ;; This function uses a non-reentrant model
  4070 ;;
  4071                           
  4072                           	psect	text38
  4073   0033C6                     __ptext38:
  4074                           	callstack 0
  4075   0033C6                     _I2C1_DO_SEND_STOP:
  4076                           	callstack 116
  4077   0033C6                     
  4078                           ;mcc_generated_files/i2c1_master.c: 523:     I2C1_MasterStop();
  4079   0033C6  EC59  F01B         	call	_I2C1_MasterStop	;wreg free
  4080   0033CA                     
  4081                           ;mcc_generated_files/i2c1_master.c: 524:     if(I2C1_MasterGetCounter())
  4082   0033CA  EC56  F01B         	call	_I2C1_MasterGetCounter	;wreg free
  4083   0033CE  0900               	iorlw	0
  4084   0033D0  B4D8               	btfsc	status,2,c
  4085   0033D2  EFED  F019         	goto	u961
  4086   0033D6  EFEF  F019         	goto	u960
  4087   0033DA                     u961:
  4088   0033DA  EFF5  F019         	goto	l3249
  4089   0033DE                     u960:
  4090   0033DE                     
  4091                           ;mcc_generated_files/i2c1_master.c: 525:     {;mcc_generated_files/i2c1_master.c: 526:  
      +                                 I2C1_MasterSetCounter(0);
  4092   0033DE  0E00               	movlw	0
  4093   0033E0  EC4E  F01B         	call	_I2C1_MasterSetCounter
  4094                           
  4095                           ;mcc_generated_files/i2c1_master.c: 527:         I2C1_MasterSendTxData(0);
  4096   0033E4  0E00               	movlw	0
  4097   0033E6  EC4A  F01B         	call	_I2C1_MasterSendTxData
  4098   0033EA                     l3249:
  4099                           
  4100                           ;mcc_generated_files/i2c1_master.c: 529:     return I2C1_IDLE;
  4101   0033EA  0E00               	movlw	0
  4102   0033EC  0012               	return		;funcret
  4103   0033EE                     __end_of_I2C1_DO_SEND_STOP:
  4104                           	callstack 0
  4105                           
  4106 ;; *************** function _I2C1_DO_SEND_RESTART *****************
  4107 ;; Defined at:
  4108 ;;		line 516 in file "mcc_generated_files/i2c1_master.c"
  4109 ;; Parameters:    Size  Location     Type
  4110 ;;		None
  4111 ;; Auto vars:     Size  Location     Type
  4112 ;;		None
  4113 ;; Return value:  Size  Location     Type
  4114 ;;                  1    wreg      enum E17495
  4115 ;; Registers used:
  4116 ;;		wreg
  4117 ;; Tracked objects:
  4118 ;;		On entry : 0/0
  4119 ;;		On exit  : 0/0
  4120 ;;		Unchanged: 0/0
  4121 ;; Data sizes:     COMRAM   BANK5   BANK6   BANK7   BANK8   BANK9  BANK10  BANK11  BANK12  BANK13  BANK14  BANK15  BANK1
      +6  BANK17  BANK18  BANK19  BANK20  BANK21  BANK22  BANK23  BANK24  BANK25  BANK26  BANK27  BANK28  BANK29  BANK30  BANK3
      +1  BANK32  BANK33  BANK34  BANK35  BANK36
  4122 ;;      Params:         0       0       0       0       0       0       0       0       0       0       0       0       
      +0       0       0       0       0       0       0       0       0       0       0       0       0       0       0       
      +0       0       0       0       0       0
  4123 ;;      Locals:         0       0       0       0       0       0       0       0       0       0       0       0       
      +0       0       0       0       0       0       0       0       0       0       0       0       0       0       0       
      +0       0       0       0       0       0
  4124 ;;      Temps:          0       0       0       0       0       0       0       0       0       0       0       0       
      +0       0       0       0       0       0       0       0       0       0       0       0       0       0       0       
      +0       0       0       0       0       0
  4125 ;;      Totals:         0       0       0       0       0       0       0       0       0       0       0       0       
      +0       0       0       0       0       0       0       0       0       0       0       0       0       0       0       
      +0       0       0       0       0       0
  4126 ;;Total ram usage:        0 bytes
  4127 ;; Hardware stack levels used: 1
  4128 ;; This function calls:
  4129 ;;		Nothing
  4130 ;; This function is called by:
  4131 ;;		_I2C1_DO_ADDRESS_NACK
  4132 ;;		_I2C1_MasterFsm
  4133 ;; This function uses a non-reentrant model
  4134 ;;
  4135                           
  4136                           	psect	text39
  4137   0036E8                     __ptext39:
  4138                           	callstack 0
  4139   0036E8                     _I2C1_DO_SEND_RESTART:
  4140                           	callstack 117
  4141   0036E8                     
  4142                           ;mcc_generated_files/i2c1_master.c: 518:     return I2C1_SEND_ADR_READ;
  4143   0036E8  0E01               	movlw	1
  4144   0036EA  0012               	return		;funcret
  4145   0036EC                     __end_of_I2C1_DO_SEND_RESTART:
  4146                           	callstack 0
  4147                           
  4148 ;; *************** function _I2C1_DO_SEND_RESTART_WRITE *****************
  4149 ;; Defined at:
  4150 ;;		line 510 in file "mcc_generated_files/i2c1_master.c"
  4151 ;; Parameters:    Size  Location     Type
  4152 ;;		None
  4153 ;; Auto vars:     Size  Location     Type
  4154 ;;		None
  4155 ;; Return value:  Size  Location     Type
  4156 ;;                  1    wreg      enum E17495
  4157 ;; Registers used:
  4158 ;;		wreg
  4159 ;; Tracked objects:
  4160 ;;		On entry : 0/0
  4161 ;;		On exit  : 0/0
  4162 ;;		Unchanged: 0/0
  4163 ;; Data sizes:     COMRAM   BANK5   BANK6   BANK7   BANK8   BANK9  BANK10  BANK11  BANK12  BANK13  BANK14  BANK15  BANK1
      +6  BANK17  BANK18  BANK19  BANK20  BANK21  BANK22  BANK23  BANK24  BANK25  BANK26  BANK27  BANK28  BANK29  BANK30  BANK3
      +1  BANK32  BANK33  BANK34  BANK35  BANK36
  4164 ;;      Params:         0       0       0       0       0       0       0       0       0       0       0       0       
      +0       0       0       0       0       0       0       0       0       0       0       0       0       0       0       
      +0       0       0       0       0       0
  4165 ;;      Locals:         0       0       0       0       0       0       0       0       0       0       0       0       
      +0       0       0       0       0       0       0       0       0       0       0       0       0       0       0       
      +0       0       0       0       0       0
  4166 ;;      Temps:          0       0       0       0       0       0       0       0       0       0       0       0       
      +0       0       0       0       0       0       0       0       0       0       0       0       0       0       0       
      +0       0       0       0       0       0
  4167 ;;      Totals:         0       0       0       0       0       0       0       0       0       0       0       0       
      +0       0       0       0       0       0       0       0       0       0       0       0       0       0       0       
      +0       0       0       0       0       0
  4168 ;;Total ram usage:        0 bytes
  4169 ;; Hardware stack levels used: 1
  4170 ;; This function calls:
  4171 ;;		Nothing
  4172 ;; This function is called by:
  4173 ;;		_I2C1_DO_TX
  4174 ;;		_I2C1_DO_BUS_COLLISION
  4175 ;;		_I2C1_MasterFsm
  4176 ;; This function uses a non-reentrant model
  4177 ;;
  4178                           
  4179                           	psect	text40
  4180   0036EC                     __ptext40:
  4181                           	callstack 0
  4182   0036EC                     _I2C1_DO_SEND_RESTART_WRITE:
  4183                           	callstack 116
  4184   0036EC                     
  4185                           ;mcc_generated_files/i2c1_master.c: 512:     return I2C1_SEND_ADR_WRITE;
  4186   0036EC  0E02               	movlw	2
  4187   0036EE  0012               	return		;funcret
  4188   0036F0                     __end_of_I2C1_DO_SEND_RESTART_WRITE:
  4189                           	callstack 0
  4190                           
  4191 ;; *************** function _I2C1_DO_SEND_RESTART_READ *****************
  4192 ;; Defined at:
  4193 ;;		line 504 in file "mcc_generated_files/i2c1_master.c"
  4194 ;; Parameters:    Size  Location     Type
  4195 ;;		None
  4196 ;; Auto vars:     Size  Location     Type
  4197 ;;		None
  4198 ;; Return value:  Size  Location     Type
  4199 ;;                  1    wreg      enum E17495
  4200 ;; Registers used:
  4201 ;;		wreg, fsr2l, fsr2h, status,2, status,0, pcl, pclath, pclatu, tosl, prodl, prodh, cstack
  4202 ;; Tracked objects:
  4203 ;;		On entry : 0/0
  4204 ;;		On exit  : 0/0
  4205 ;;		Unchanged: 0/0
  4206 ;; Data sizes:     COMRAM   BANK5   BANK6   BANK7   BANK8   BANK9  BANK10  BANK11  BANK12  BANK13  BANK14  BANK15  BANK1
      +6  BANK17  BANK18  BANK19  BANK20  BANK21  BANK22  BANK23  BANK24  BANK25  BANK26  BANK27  BANK28  BANK29  BANK30  BANK3
      +1  BANK32  BANK33  BANK34  BANK35  BANK36
  4207 ;;      Params:         0       0       0       0       0       0       0       0       0       0       0       0       
      +0       0       0       0       0       0       0       0       0       0       0       0       0       0       0       
      +0       0       0       0       0       0
  4208 ;;      Locals:         0       0       0       0       0       0       0       0       0       0       0       0       
      +0       0       0       0       0       0       0       0       0       0       0       0       0       0       0       
      +0       0       0       0       0       0
  4209 ;;      Temps:          0       0       0       0       0       0       0       0       0       0       0       0       
      +0       0       0       0       0       0       0       0       0       0       0       0       0       0       0       
      +0       0       0       0       0       0
  4210 ;;      Totals:         0       0       0       0       0       0       0       0       0       0       0       0       
      +0       0       0       0       0       0       0       0       0       0       0       0       0       0       0       
      +0       0       0       0       0       0
  4211 ;;Total ram usage:        0 bytes
  4212 ;; Hardware stack levels used: 1
  4213 ;; Hardware stack levels required when called: 5
  4214 ;; This function calls:
  4215 ;;		_I2C1_DO_SEND_ADR_READ
  4216 ;;		_I2C1_MasterSetCounter
  4217 ;; This function is called by:
  4218 ;;		_I2C1_DO_TX
  4219 ;;		_I2C1_DO_BUS_COLLISION
  4220 ;;		_I2C1_MasterFsm
  4221 ;; This function uses a non-reentrant model
  4222 ;;
  4223                           
  4224                           	psect	text41
  4225   003634                     __ptext41:
  4226                           	callstack 0
  4227   003634                     _I2C1_DO_SEND_RESTART_READ:
  4228                           	callstack 111
  4229   003634                     
  4230                           ;mcc_generated_files/i2c1_master.c: 506:     I2C1_MasterSetCounter((uint8_t) I2C1_Status
      +                          .data_length);
  4231   003634  5026               	movf	(_I2C1_Status+37)^(0+1280),w,c
  4232   003636  EC4E  F01B         	call	_I2C1_MasterSetCounter
  4233   00363A                     
  4234                           ;mcc_generated_files/i2c1_master.c: 507:     return I2C1_DO_SEND_ADR_READ();
  4235   00363A  ECB9  F019         	call	_I2C1_DO_SEND_ADR_READ	;wreg free
  4236   00363E  0012               	return		;funcret
  4237   003640                     __end_of_I2C1_DO_SEND_RESTART_READ:
  4238                           	callstack 0
  4239                           
  4240 ;; *************** function _I2C1_DO_RX_EMPTY *****************
  4241 ;; Defined at:
  4242 ;;		line 479 in file "mcc_generated_files/i2c1_master.c"
  4243 ;; Parameters:    Size  Location     Type
  4244 ;;		None
  4245 ;; Auto vars:     Size  Location     Type
  4246 ;;		None
  4247 ;; Return value:  Size  Location     Type
  4248 ;;                  1    wreg      enum E17495
  4249 ;; Registers used:
  4250 ;;		wreg, fsr2l, fsr2h, status,2, status,0, pcl, pclath, pclatu, tosl, prodl, prodh, cstack
  4251 ;; Tracked objects:
  4252 ;;		On entry : 0/0
  4253 ;;		On exit  : 0/0
  4254 ;;		Unchanged: 0/0
  4255 ;; Data sizes:     COMRAM   BANK5   BANK6   BANK7   BANK8   BANK9  BANK10  BANK11  BANK12  BANK13  BANK14  BANK15  BANK1
      +6  BANK17  BANK18  BANK19  BANK20  BANK21  BANK22  BANK23  BANK24  BANK25  BANK26  BANK27  BANK28  BANK29  BANK30  BANK3
      +1  BANK32  BANK33  BANK34  BANK35  BANK36
  4256 ;;      Params:         0       0       0       0       0       0       0       0       0       0       0       0       
      +0       0       0       0       0       0       0       0       0       0       0       0       0       0       0       
      +0       0       0       0       0       0
  4257 ;;      Locals:         0       0       0       0       0       0       0       0       0       0       0       0       
      +0       0       0       0       0       0       0       0       0       0       0       0       0       0       0       
      +0       0       0       0       0       0
  4258 ;;      Temps:          2       0       0       0       0       0       0       0       0       0       0       0       
      +0       0       0       0       0       0       0       0       0       0       0       0       0       0       0       
      +0       0       0       0       0       0
  4259 ;;      Totals:         2       0       0       0       0       0       0       0       0       0       0       0       
      +0       0       0       0       0       0       0       0       0       0       0       0       0       0       0       
      +0       0       0       0       0       0
  4260 ;;Total ram usage:        2 bytes
  4261 ;; Hardware stack levels used: 1
  4262 ;; Hardware stack levels required when called: 3
  4263 ;; This function calls:
  4264 ;;		NULL
  4265 ;;		_I2C1_CallbackReturnReset
  4266 ;;		_I2C1_CallbackReturnStop
  4267 ;;		_I2C1_MasterDisableRestart
  4268 ;;		_I2C1_MasterEnableRestart
  4269 ;;		_I2C1_MasterSetCounter
  4270 ;;		_rd1RegCompleteHandler
  4271 ;;		_rd2RegCompleteHandler
  4272 ;;		_rdBlkRegCompleteHandler
  4273 ;;		_wr1RegCompleteHandler
  4274 ;;		_wr2RegCompleteHandler
  4275 ;; This function is called by:
  4276 ;;		_I2C1_DO_SEND_ADR_READ
  4277 ;;		_I2C1_DO_RX
  4278 ;;		_I2C1_MasterFsm
  4279 ;; This function uses a non-reentrant model
  4280 ;;
  4281                           
  4282                           	psect	text42
  4283   002A76                     __ptext42:
  4284                           	callstack 0
  4285   002A76                     _I2C1_DO_RX_EMPTY:
  4286                           	callstack 111
  4287   002A76                     
  4288                           ;mcc_generated_files/i2c1_master.c: 481:     I2C1_Status.bufferFree = 1;
  4289   002A76  882A               	bsf	(_I2C1_Status+41)^(0+1280),4,c
  4290                           
  4291                           ;mcc_generated_files/i2c1_master.c: 482:     switch(I2C1_Status.callbackTable[I2C1_DATA_
      +                          COMPLETE](I2C1_Status.callbackPayload[I2C1_DATA_COMPLETE]))
  4292   002A78  EF5C  F015         	goto	l3085
  4293   002A7C                     l3057:
  4294                           
  4295                           ;mcc_generated_files/i2c1_master.c: 485:             I2C1_MasterEnableRestart();
  4296   002A7C  EC65  F01B         	call	_I2C1_MasterEnableRestart	;wreg free
  4297   002A80                     
  4298                           ;mcc_generated_files/i2c1_master.c: 486:             return I2C1_SEND_RESTART_WRITE;
  4299   002A80  0E08               	movlw	8
  4300   002A82  EF89  F015         	goto	l648
  4301   002A86                     l3063:
  4302                           
  4303                           ;mcc_generated_files/i2c1_master.c: 488:             I2C1_MasterEnableRestart();
  4304   002A86  EC65  F01B         	call	_I2C1_MasterEnableRestart	;wreg free
  4305   002A8A                     
  4306                           ;mcc_generated_files/i2c1_master.c: 489:             return I2C1_SEND_RESTART_READ;
  4307   002A8A  0E07               	movlw	7
  4308   002A8C  EF89  F015         	goto	l648
  4309   002A90                     l3069:
  4310                           
  4311                           ;mcc_generated_files/i2c1_master.c: 492:             I2C1_MasterSetCounter((uint8_t) (I2
      +                          C1_Status.data_length + 1));
  4312   002A90  2826               	incf	(_I2C1_Status+37)^(0+1280),w,c
  4313   002A92  EC4E  F01B         	call	_I2C1_MasterSetCounter
  4314   002A96                     
  4315                           ;mcc_generated_files/i2c1_master.c: 493:             return I2C1_RX;
  4316   002A96  0E04               	movlw	4
  4317   002A98  EF89  F015         	goto	l648
  4318   002A9C                     l3075:
  4319                           
  4320                           ;mcc_generated_files/i2c1_master.c: 496:             if(I2C1_Status.state != I2C1_SEND_R
      +                          ESTART_READ)
  4321   002A9C  0E07               	movlw	7
  4322   002A9E  1828               	xorwf	(_I2C1_Status+39)^(0+1280),w,c
  4323   002AA0  B4D8               	btfsc	status,2,c
  4324   002AA2  EF55  F015         	goto	u821
  4325   002AA6  EF57  F015         	goto	u820
  4326   002AAA                     u821:
  4327   002AAA  EF59  F015         	goto	l3079
  4328   002AAE                     u820:
  4329   002AAE                     
  4330                           ;mcc_generated_files/i2c1_master.c: 497:             {;mcc_generated_files/i2c1_master.c
      +                          : 498:                 I2C1_MasterDisableRestart();
  4331   002AAE  EC68  F01B         	call	_I2C1_MasterDisableRestart	;wreg free
  4332   002AB2                     l3079:
  4333                           
  4334                           ;mcc_generated_files/i2c1_master.c: 500:             return I2C1_RESET;
  4335   002AB2  0E0F               	movlw	15
  4336   002AB4  EF89  F015         	goto	l648
  4337   002AB8                     l3085:
  4338   002AB8  C513  F53D         	movff	_I2C1_Status+18,I2C1_CallbackReturnReset@funPtr
  4339   002ABC  C514  F53E         	movff	_I2C1_Status+19,I2C1_CallbackReturnReset@funPtr+1
  4340   002AC0  D802               	call	u838
  4341   002AC2  EF6D  F015         	goto	u839
  4342   002AC6                     u838:
  4343   002AC6  0005               	push	
  4344   002AC8  6EFA               	movwf	pclath,c
  4345   002ACA  5001               	movf	_I2C1_Status^(0+1280),w,c
  4346   002ACC  6EFD               	movwf	tosl,c
  4347   002ACE  5002               	movf	(_I2C1_Status+1)^(0+1280),w,c
  4348   002AD0  6EFE               	movwf	tosh,c
  4349   002AD2  5003               	movf	(_I2C1_Status+2)^(0+1280),w,c
  4350   002AD4  6EFF               	movwf	tosu,c
  4351   002AD6  50FA               	movf	pclath,w,c
  4352   002AD8  0012               	return		;indir
  4353   002ADA                     u839:
  4354   002ADA  6E3F               	movwf	??_I2C1_DO_RX_EMPTY^(0+1280),c
  4355   002ADC  6A40               	clrf	(??_I2C1_DO_RX_EMPTY+1)^(0+1280),c
  4356                           
  4357                           ; Switch on 2 bytes has been partitioned into a top level switch of size 1, and 1 sub-sw
      +                          itches
  4358                           ; Switch size 1, requested type "simple"
  4359                           ; Number of cases is 1, Range of values is 0 to 0
  4360                           ; switch strategies available:
  4361                           ; Name         Instructions Cycles
  4362                           ; simple_byte            4     3 (average)
  4363                           ;	Chosen strategy is simple_byte
  4364   002ADE  5040               	movf	(??_I2C1_DO_RX_EMPTY+1)^(0+1280),w,c
  4365   002AE0  0A00               	xorlw	0	; case 0
  4366   002AE2  B4D8               	btfsc	status,2,c
  4367   002AE4  EF76  F015         	goto	l3851
  4368   002AE8  EF4E  F015         	goto	l3075
  4369   002AEC                     l3851:
  4370                           
  4371                           ; Switch size 1, requested type "simple"
  4372                           ; Number of cases is 4, Range of values is 1 to 4
  4373                           ; switch strategies available:
  4374                           ; Name         Instructions Cycles
  4375                           ; simple_byte           13     7 (average)
  4376                           ;	Chosen strategy is simple_byte
  4377   002AEC  503F               	movf	??_I2C1_DO_RX_EMPTY^(0+1280),w,c
  4378   002AEE  0A01               	xorlw	1	; case 1
  4379   002AF0  B4D8               	btfsc	status,2,c
  4380   002AF2  EF4E  F015         	goto	l3075
  4381   002AF6  0A03               	xorlw	3	; case 2
  4382   002AF8  B4D8               	btfsc	status,2,c
  4383   002AFA  EF43  F015         	goto	l3063
  4384   002AFE  0A01               	xorlw	1	; case 3
  4385   002B00  B4D8               	btfsc	status,2,c
  4386   002B02  EF3E  F015         	goto	l3057
  4387   002B06  0A07               	xorlw	7	; case 4
  4388   002B08  B4D8               	btfsc	status,2,c
  4389   002B0A  EF48  F015         	goto	l3069
  4390   002B0E  EF4E  F015         	goto	l3075
  4391   002B12                     l648:
  4392   002B12  0012               	return		;funcret
  4393   002B14                     __end_of_I2C1_DO_RX_EMPTY:
  4394                           	callstack 0
  4395                           
  4396 ;; *************** function _I2C1_DO_TX_EMPTY *****************
  4397 ;; Defined at:
  4398 ;;		line 460 in file "mcc_generated_files/i2c1_master.c"
  4399 ;; Parameters:    Size  Location     Type
  4400 ;;		None
  4401 ;; Auto vars:     Size  Location     Type
  4402 ;;		None
  4403 ;; Return value:  Size  Location     Type
  4404 ;;                  1    wreg      enum E17495
  4405 ;; Registers used:
  4406 ;;		wreg, fsr2l, fsr2h, status,2, status,0, pcl, pclath, pclatu, tosl, prodl, prodh, cstack
  4407 ;; Tracked objects:
  4408 ;;		On entry : 0/0
  4409 ;;		On exit  : 0/0
  4410 ;;		Unchanged: 0/0
  4411 ;; Data sizes:     COMRAM   BANK5   BANK6   BANK7   BANK8   BANK9  BANK10  BANK11  BANK12  BANK13  BANK14  BANK15  BANK1
      +6  BANK17  BANK18  BANK19  BANK20  BANK21  BANK22  BANK23  BANK24  BANK25  BANK26  BANK27  BANK28  BANK29  BANK30  BANK3
      +1  BANK32  BANK33  BANK34  BANK35  BANK36
  4412 ;;      Params:         0       0       0       0       0       0       0       0       0       0       0       0       
      +0       0       0       0       0       0       0       0       0       0       0       0       0       0       0       
      +0       0       0       0       0       0
  4413 ;;      Locals:         0       0       0       0       0       0       0       0       0       0       0       0       
      +0       0       0       0       0       0       0       0       0       0       0       0       0       0       0       
      +0       0       0       0       0       0
  4414 ;;      Temps:          2       0       0       0       0       0       0       0       0       0       0       0       
      +0       0       0       0       0       0       0       0       0       0       0       0       0       0       0       
      +0       0       0       0       0       0
  4415 ;;      Totals:         2       0       0       0       0       0       0       0       0       0       0       0       
      +0       0       0       0       0       0       0       0       0       0       0       0       0       0       0       
      +0       0       0       0       0       0
  4416 ;;Total ram usage:        2 bytes
  4417 ;; Hardware stack levels used: 1
  4418 ;; Hardware stack levels required when called: 3
  4419 ;; This function calls:
  4420 ;;		NULL
  4421 ;;		_I2C1_CallbackReturnReset
  4422 ;;		_I2C1_CallbackReturnStop
  4423 ;;		_I2C1_MasterDisableRestart
  4424 ;;		_I2C1_MasterEnableRestart
  4425 ;;		_I2C1_MasterSetCounter
  4426 ;;		_rd1RegCompleteHandler
  4427 ;;		_rd2RegCompleteHandler
  4428 ;;		_rdBlkRegCompleteHandler
  4429 ;;		_wr1RegCompleteHandler
  4430 ;;		_wr2RegCompleteHandler
  4431 ;; This function is called by:
  4432 ;;		_I2C1_DO_TX
  4433 ;;		_I2C1_MasterFsm
  4434 ;; This function uses a non-reentrant model
  4435 ;;
  4436                           
  4437                           	psect	text43
  4438   002D34                     __ptext43:
  4439                           	callstack 0
  4440   002D34                     _I2C1_DO_TX_EMPTY:
  4441                           	callstack 114
  4442   002D34                     
  4443                           ;mcc_generated_files/i2c1_master.c: 462:     I2C1_Status.bufferFree = 1;
  4444   002D34  882A               	bsf	(_I2C1_Status+41)^(0+1280),4,c
  4445                           
  4446                           ;mcc_generated_files/i2c1_master.c: 463:     switch(I2C1_Status.callbackTable[I2C1_DATA_
      +                          COMPLETE](I2C1_Status.callbackPayload[I2C1_DATA_COMPLETE]))
  4447   002D36  EFAD  F016         	goto	l3145
  4448   002D3A                     l3125:
  4449                           
  4450                           ;mcc_generated_files/i2c1_master.c: 466:             I2C1_MasterEnableRestart();
  4451   002D3A  EC65  F01B         	call	_I2C1_MasterEnableRestart	;wreg free
  4452   002D3E                     
  4453                           ;mcc_generated_files/i2c1_master.c: 467:             return I2C1_SEND_RESTART_READ;
  4454   002D3E  0E07               	movlw	7
  4455   002D40  EFD6  F016         	goto	l639
  4456   002D44                     l3131:
  4457                           
  4458                           ;mcc_generated_files/i2c1_master.c: 470:             I2C1_MasterSetCounter((uint8_t) I2C
      +                          1_Status.data_length + 1);
  4459   002D44  2826               	incf	(_I2C1_Status+37)^(0+1280),w,c
  4460   002D46  EC4E  F01B         	call	_I2C1_MasterSetCounter
  4461   002D4A                     
  4462                           ;mcc_generated_files/i2c1_master.c: 471:             return I2C1_TX;
  4463   002D4A  0E03               	movlw	3
  4464   002D4C  EFD6  F016         	goto	l639
  4465   002D50                     l3137:
  4466                           
  4467                           ;mcc_generated_files/i2c1_master.c: 474:             I2C1_MasterDisableRestart();
  4468   002D50  EC68  F01B         	call	_I2C1_MasterDisableRestart	;wreg free
  4469   002D54                     
  4470                           ;mcc_generated_files/i2c1_master.c: 475:             return I2C1_SEND_STOP;
  4471   002D54  0E0A               	movlw	10
  4472   002D56  EFD6  F016         	goto	l639
  4473   002D5A                     l3145:
  4474   002D5A  C513  F53D         	movff	_I2C1_Status+18,I2C1_CallbackReturnReset@funPtr
  4475   002D5E  C514  F53E         	movff	_I2C1_Status+19,I2C1_CallbackReturnReset@funPtr+1
  4476   002D62  D802               	call	u878
  4477   002D64  EFBE  F016         	goto	u879
  4478   002D68                     u878:
  4479   002D68  0005               	push	
  4480   002D6A  6EFA               	movwf	pclath,c
  4481   002D6C  5001               	movf	_I2C1_Status^(0+1280),w,c
  4482   002D6E  6EFD               	movwf	tosl,c
  4483   002D70  5002               	movf	(_I2C1_Status+1)^(0+1280),w,c
  4484   002D72  6EFE               	movwf	tosh,c
  4485   002D74  5003               	movf	(_I2C1_Status+2)^(0+1280),w,c
  4486   002D76  6EFF               	movwf	tosu,c
  4487   002D78  50FA               	movf	pclath,w,c
  4488   002D7A  0012               	return		;indir
  4489   002D7C                     u879:
  4490   002D7C  6E3F               	movwf	??_I2C1_DO_TX_EMPTY^(0+1280),c
  4491   002D7E  6A40               	clrf	(??_I2C1_DO_TX_EMPTY+1)^(0+1280),c
  4492                           
  4493                           ; Switch on 2 bytes has been partitioned into a top level switch of size 1, and 1 sub-sw
      +                          itches
  4494                           ; Switch size 1, requested type "simple"
  4495                           ; Number of cases is 1, Range of values is 0 to 0
  4496                           ; switch strategies available:
  4497                           ; Name         Instructions Cycles
  4498                           ; simple_byte            4     3 (average)
  4499                           ;	Chosen strategy is simple_byte
  4500   002D80  5040               	movf	(??_I2C1_DO_TX_EMPTY+1)^(0+1280),w,c
  4501   002D82  0A00               	xorlw	0	; case 0
  4502   002D84  B4D8               	btfsc	status,2,c
  4503   002D86  EFC7  F016         	goto	l3853
  4504   002D8A  EFA8  F016         	goto	l3137
  4505   002D8E                     l3853:
  4506                           
  4507                           ; Switch size 1, requested type "simple"
  4508                           ; Number of cases is 3, Range of values is 1 to 4
  4509                           ; switch strategies available:
  4510                           ; Name         Instructions Cycles
  4511                           ; simple_byte           10     6 (average)
  4512                           ;	Chosen strategy is simple_byte
  4513   002D8E  503F               	movf	??_I2C1_DO_TX_EMPTY^(0+1280),w,c
  4514   002D90  0A01               	xorlw	1	; case 1
  4515   002D92  B4D8               	btfsc	status,2,c
  4516   002D94  EFA8  F016         	goto	l3137
  4517   002D98  0A03               	xorlw	3	; case 2
  4518   002D9A  B4D8               	btfsc	status,2,c
  4519   002D9C  EF9D  F016         	goto	l3125
  4520   002DA0  0A06               	xorlw	6	; case 4
  4521   002DA2  B4D8               	btfsc	status,2,c
  4522   002DA4  EFA2  F016         	goto	l3131
  4523   002DA8  EFA8  F016         	goto	l3137
  4524   002DAC                     l639:
  4525   002DAC  0012               	return		;funcret
  4526   002DAE                     __end_of_I2C1_DO_TX_EMPTY:
  4527                           	callstack 0
  4528                           
  4529 ;; *************** function _I2C1_DO_RX *****************
  4530 ;; Defined at:
  4531 ;;		line 436 in file "mcc_generated_files/i2c1_master.c"
  4532 ;; Parameters:    Size  Location     Type
  4533 ;;		None
  4534 ;; Auto vars:     Size  Location     Type
  4535 ;;  retFsmState     1   17[COMRAM] enum E17495
  4536 ;; Return value:  Size  Location     Type
  4537 ;;                  1    wreg      enum E17495
  4538 ;; Registers used:
  4539 ;;		wreg, fsr2l, fsr2h, status,2, status,0, pcl, pclath, pclatu, tosl, prodl, prodh, cstack
  4540 ;; Tracked objects:
  4541 ;;		On entry : 0/0
  4542 ;;		On exit  : 0/0
  4543 ;;		Unchanged: 0/0
  4544 ;; Data sizes:     COMRAM   BANK5   BANK6   BANK7   BANK8   BANK9  BANK10  BANK11  BANK12  BANK13  BANK14  BANK15  BANK1
      +6  BANK17  BANK18  BANK19  BANK20  BANK21  BANK22  BANK23  BANK24  BANK25  BANK26  BANK27  BANK28  BANK29  BANK30  BANK3
      +1  BANK32  BANK33  BANK34  BANK35  BANK36
  4545 ;;      Params:         0       0       0       0       0       0       0       0       0       0       0       0       
      +0       0       0       0       0       0       0       0       0       0       0       0       0       0       0       
      +0       0       0       0       0       0
  4546 ;;      Locals:         1       0       0       0       0       0       0       0       0       0       0       0       
      +0       0       0       0       0       0       0       0       0       0       0       0       0       0       0       
      +0       0       0       0       0       0
  4547 ;;      Temps:          2       0       0       0       0       0       0       0       0       0       0       0       
      +0       0       0       0       0       0       0       0       0       0       0       0       0       0       0       
      +0       0       0       0       0       0
  4548 ;;      Totals:         3       0       0       0       0       0       0       0       0       0       0       0       
      +0       0       0       0       0       0       0       0       0       0       0       0       0       0       0       
      +0       0       0       0       0       0
  4549 ;;Total ram usage:        3 bytes
  4550 ;; Hardware stack levels used: 1
  4551 ;; Hardware stack levels required when called: 4
  4552 ;; This function calls:
  4553 ;;		_I2C1_DO_RX_EMPTY
  4554 ;;		_I2C1_MasterGetRxData
  4555 ;;		_I2C1_MasterIsRxBufFull
  4556 ;; This function is called by:
  4557 ;;		_I2C1_MasterFsm
  4558 ;; This function uses a non-reentrant model
  4559 ;;
  4560                           
  4561                           	psect	text44
  4562   002B14                     __ptext44:
  4563                           	callstack 0
  4564   002B14                     _I2C1_DO_RX:
  4565                           	callstack 113
  4566   002B14                     
  4567                           ;mcc_generated_files/i2c1_master.c: 438:     if(!I2C1_MasterIsRxBufFull())
  4568   002B14  ECB2  F01A         	call	_I2C1_MasterIsRxBufFull	;wreg free
  4569   002B18  0900               	iorlw	0
  4570   002B1A  A4D8               	btfss	status,2,c
  4571   002B1C  EF92  F015         	goto	u931
  4572   002B20  EF94  F015         	goto	u930
  4573   002B24                     u931:
  4574   002B24  EF97  F015         	goto	l3219
  4575   002B28                     u930:
  4576   002B28                     l3215:
  4577                           
  4578                           ;mcc_generated_files/i2c1_master.c: 439:     {;mcc_generated_files/i2c1_master.c: 440:  
      +                                 return I2C1_RX;
  4579   002B28  0E04               	movlw	4
  4580   002B2A  EFD1  F015         	goto	l631
  4581   002B2E                     l3219:
  4582                           
  4583                           ;mcc_generated_files/i2c1_master.c: 442:     if(I2C1_Status.addressNackCheck)
  4584   002B2E  502A               	movf	(_I2C1_Status+41)^(0+1280),w,c
  4585   002B30  0B03               	andlw	3
  4586   002B32  0900               	iorlw	0
  4587   002B34  B4D8               	btfsc	status,2,c
  4588   002B36  EF9F  F015         	goto	u941
  4589   002B3A  EFA1  F015         	goto	u940
  4590   002B3E                     u941:
  4591   002B3E  EFAD  F015         	goto	l632
  4592   002B42                     u940:
  4593   002B42                     
  4594                           ;mcc_generated_files/i2c1_master.c: 443:     {;mcc_generated_files/i2c1_master.c: 444:  
      +                                 I2C1_Status.addressNackCheck--;
  4595   002B42  0E01               	movlw	1
  4596   002B44  6E41               	movwf	??_I2C1_DO_RX^(0+1280),c
  4597   002B46  502A               	movf	(_I2C1_Status+41)^(0+1280),w,c
  4598   002B48  0B03               	andlw	3
  4599   002B4A  6E42               	movwf	(??_I2C1_DO_RX+1)^(0+1280),c
  4600   002B4C  5041               	movf	??_I2C1_DO_RX^(0+1280),w,c
  4601   002B4E  5E42               	subwf	(??_I2C1_DO_RX+1)^(0+1280),f,c
  4602   002B50  502A               	movf	(_I2C1_Status+41)^(0+1280),w,c
  4603   002B52  1842               	xorwf	(??_I2C1_DO_RX+1)^(0+1280),w,c
  4604   002B54  0BFC               	andlw	-4
  4605   002B56  1842               	xorwf	(??_I2C1_DO_RX+1)^(0+1280),w,c
  4606   002B58  6E2A               	movwf	(_I2C1_Status+41)^(0+1280),c
  4607   002B5A                     l632:
  4608                           
  4609                           ;mcc_generated_files/i2c1_master.c: 447:     if(--I2C1_Status.data_length)
  4610   002B5A  0626               	decf	(_I2C1_Status+37)^(0+1280),f,c
  4611   002B5C  A0D8               	btfss	status,0,c
  4612   002B5E  0627               	decf	(_I2C1_Status+38)^(0+1280),f,c
  4613   002B60  5026               	movf	(_I2C1_Status+37)^(0+1280),w,c
  4614   002B62  1027               	iorwf	(_I2C1_Status+38)^(0+1280),w,c
  4615   002B64  B4D8               	btfsc	status,2,c
  4616   002B66  EFB7  F015         	goto	u951
  4617   002B6A  EFB9  F015         	goto	u950
  4618   002B6E                     u951:
  4619   002B6E  EFC4  F015         	goto	l3233
  4620   002B72                     u950:
  4621   002B72                     
  4622                           ;mcc_generated_files/i2c1_master.c: 448:     {;mcc_generated_files/i2c1_master.c: 449:  
      +                                 *I2C1_Status.data_ptr++ = I2C1_MasterGetRxData();
  4623   002B72  EC62  F01B         	call	_I2C1_MasterGetRxData	;wreg free
  4624   002B76  C524  F4D9         	movff	_I2C1_Status+35,fsr2l
  4625   002B7A  C525  F4DA         	movff	_I2C1_Status+36,fsr2h
  4626   002B7E  6EDF               	movwf	indf2,c
  4627   002B80  4A24               	infsnz	(_I2C1_Status+35)^(0+1280),f,c
  4628   002B82  2A25               	incf	(_I2C1_Status+36)^(0+1280),f,c
  4629   002B84  EF94  F015         	goto	l3215
  4630   002B88                     l3233:
  4631                           
  4632                           ;mcc_generated_files/i2c1_master.c: 453:     {;mcc_generated_files/i2c1_master.c: 454:  
      +                                 i2c1_fsm_states_t retFsmState = I2C1_DO_RX_EMPTY();
  4633   002B88  EC3B  F015         	call	_I2C1_DO_RX_EMPTY	;wreg free
  4634   002B8C  6E43               	movwf	I2C1_DO_RX@retFsmState^(0+1280),c
  4635   002B8E                     
  4636                           ;mcc_generated_files/i2c1_master.c: 455:         *I2C1_Status.data_ptr++ = I2C1_MasterGe
      +                          tRxData();
  4637   002B8E  EC62  F01B         	call	_I2C1_MasterGetRxData	;wreg free
  4638   002B92  C524  F4D9         	movff	_I2C1_Status+35,fsr2l
  4639   002B96  C525  F4DA         	movff	_I2C1_Status+36,fsr2h
  4640   002B9A  6EDF               	movwf	indf2,c
  4641   002B9C  4A24               	infsnz	(_I2C1_Status+35)^(0+1280),f,c
  4642   002B9E  2A25               	incf	(_I2C1_Status+36)^(0+1280),f,c
  4643   002BA0                     
  4644                           ;mcc_generated_files/i2c1_master.c: 456:         return retFsmState;
  4645   002BA0  5043               	movf	I2C1_DO_RX@retFsmState^(0+1280),w,c
  4646   002BA2                     l631:
  4647   002BA2  0012               	return		;funcret
  4648   002BA4                     __end_of_I2C1_DO_RX:
  4649                           	callstack 0
  4650                           
  4651 ;; *************** function _I2C1_DO_TX *****************
  4652 ;; Defined at:
  4653 ;;		line 403 in file "mcc_generated_files/i2c1_master.c"
  4654 ;; Parameters:    Size  Location     Type
  4655 ;;		None
  4656 ;; Auto vars:     Size  Location     Type
  4657 ;;  retFsmState     1   18[COMRAM] enum E17495
  4658 ;;  dataTx          1   17[COMRAM] unsigned char 
  4659 ;; Return value:  Size  Location     Type
  4660 ;;                  1    wreg      enum E17495
  4661 ;; Registers used:
  4662 ;;		wreg, fsr2l, fsr2h, status,2, status,0, pcl, pclath, pclatu, tosl, prodl, prodh, cstack
  4663 ;; Tracked objects:
  4664 ;;		On entry : 0/0
  4665 ;;		On exit  : 0/0
  4666 ;;		Unchanged: 0/0
  4667 ;; Data sizes:     COMRAM   BANK5   BANK6   BANK7   BANK8   BANK9  BANK10  BANK11  BANK12  BANK13  BANK14  BANK15  BANK1
      +6  BANK17  BANK18  BANK19  BANK20  BANK21  BANK22  BANK23  BANK24  BANK25  BANK26  BANK27  BANK28  BANK29  BANK30  BANK3
      +1  BANK32  BANK33  BANK34  BANK35  BANK36
  4668 ;;      Params:         0       0       0       0       0       0       0       0       0       0       0       0       
      +0       0       0       0       0       0       0       0       0       0       0       0       0       0       0       
      +0       0       0       0       0       0
  4669 ;;      Locals:         4       0       0       0       0       0       0       0       0       0       0       0       
      +0       0       0       0       0       0       0       0       0       0       0       0       0       0       0       
      +0       0       0       0       0       0
  4670 ;;      Temps:          2       0       0       0       0       0       0       0       0       0       0       0       
      +0       0       0       0       0       0       0       0       0       0       0       0       0       0       0       
      +0       0       0       0       0       0
  4671 ;;      Totals:         6       0       0       0       0       0       0       0       0       0       0       0       
      +0       0       0       0       0       0       0       0       0       0       0       0       0       0       0       
      +0       0       0       0       0       0
  4672 ;;Total ram usage:        6 bytes
  4673 ;; Hardware stack levels used: 1
  4674 ;; Hardware stack levels required when called: 6
  4675 ;; This function calls:
  4676 ;;		NULL
  4677 ;;		_I2C1_CallbackReturnReset
  4678 ;;		_I2C1_CallbackReturnStop
  4679 ;;		_I2C1_DO_SEND_RESTART_READ
  4680 ;;		_I2C1_DO_SEND_RESTART_WRITE
  4681 ;;		_I2C1_DO_TX_EMPTY
  4682 ;;		_I2C1_MasterIsNack
  4683 ;;		_I2C1_MasterIsTxBufEmpty
  4684 ;;		_I2C1_MasterSendTxData
  4685 ;;		_rd1RegCompleteHandler
  4686 ;;		_rd2RegCompleteHandler
  4687 ;;		_rdBlkRegCompleteHandler
  4688 ;;		_wr1RegCompleteHandler
  4689 ;;		_wr2RegCompleteHandler
  4690 ;; This function is called by:
  4691 ;;		_I2C1_MasterFsm
  4692 ;; This function uses a non-reentrant model
  4693 ;;
  4694                           
  4695                           	psect	text45
  4696   00266A                     __ptext45:
  4697                           	callstack 0
  4698   00266A                     _I2C1_DO_TX:
  4699                           	callstack 111
  4700   00266A                     
  4701                           ;mcc_generated_files/i2c1_master.c: 405:     if(I2C1_MasterIsNack())
  4702   00266A  ECA7  F01A         	call	_I2C1_MasterIsNack	;wreg free
  4703   00266E  0900               	iorlw	0
  4704   002670  B4D8               	btfsc	status,2,c
  4705   002672  EF3D  F013         	goto	u881
  4706   002676  EF3F  F013         	goto	u880
  4707   00267A                     u881:
  4708   00267A  EF7B  F013         	goto	l3179
  4709   00267E                     u880:
  4710   00267E  EF4C  F013         	goto	l3177
  4711   002682                     l3163:
  4712                           
  4713                           ;mcc_generated_files/i2c1_master.c: 410:                 return I2C1_DO_SEND_RESTART_REA
      +                          D();
  4714   002682  EC1A  F01B         	call	_I2C1_DO_SEND_RESTART_READ	;wreg free
  4715   002686  EFC4  F013         	goto	l614
  4716   00268A                     l3167:
  4717                           
  4718                           ;mcc_generated_files/i2c1_master.c: 412:                   return I2C1_DO_SEND_RESTART_W
      +                          RITE();
  4719   00268A  EC76  F01B         	call	_I2C1_DO_SEND_RESTART_WRITE	;wreg free
  4720   00268E  EFC4  F013         	goto	l614
  4721   002692                     l3171:
  4722                           
  4723                           ;mcc_generated_files/i2c1_master.c: 416:                 return I2C1_IDLE;
  4724   002692  0E00               	movlw	0
  4725   002694  EFC4  F013         	goto	l614
  4726   002698                     l3177:
  4727   002698  C519  F53D         	movff	_I2C1_Status+24,I2C1_CallbackReturnReset@funPtr
  4728   00269C  C51A  F53E         	movff	_I2C1_Status+25,I2C1_CallbackReturnReset@funPtr+1
  4729   0026A0  EE21  F10A         	lfsr	2,_I2C1_Status+9
  4730   0026A4  D802               	call	u898
  4731   0026A6  EF5F  F013         	goto	u899
  4732   0026AA                     u898:
  4733   0026AA  0005               	push	
  4734   0026AC  6EFA               	movwf	pclath,c
  4735   0026AE  50DE               	movf	postinc2,w,c
  4736   0026B0  6EFD               	movwf	tosl,c
  4737   0026B2  50DE               	movf	postinc2,w,c
  4738   0026B4  6EFE               	movwf	tosh,c
  4739   0026B6  50DE               	movf	postinc2,w,c
  4740   0026B8  6EFF               	movwf	tosu,c
  4741   0026BA  50FA               	movf	pclath,w,c
  4742   0026BC  0012               	return		;indir
  4743   0026BE                     u899:
  4744   0026BE  6E3F               	movwf	??_I2C1_DO_TX^(0+1280),c
  4745   0026C0  6A40               	clrf	(??_I2C1_DO_TX+1)^(0+1280),c
  4746                           
  4747                           ; Switch on 2 bytes has been partitioned into a top level switch of size 1, and 1 sub-sw
      +                          itches
  4748                           ; Switch size 1, requested type "simple"
  4749                           ; Number of cases is 1, Range of values is 0 to 0
  4750                           ; switch strategies available:
  4751                           ; Name         Instructions Cycles
  4752                           ; simple_byte            4     3 (average)
  4753                           ;	Chosen strategy is simple_byte
  4754   0026C2  5040               	movf	(??_I2C1_DO_TX+1)^(0+1280),w,c
  4755   0026C4  0A00               	xorlw	0	; case 0
  4756   0026C6  B4D8               	btfsc	status,2,c
  4757   0026C8  EF68  F013         	goto	l3855
  4758   0026CC  EF49  F013         	goto	l3171
  4759   0026D0                     l3855:
  4760                           
  4761                           ; Switch size 1, requested type "simple"
  4762                           ; Number of cases is 4, Range of values is 1 to 4
  4763                           ; switch strategies available:
  4764                           ; Name         Instructions Cycles
  4765                           ; simple_byte           13     7 (average)
  4766                           ;	Chosen strategy is simple_byte
  4767   0026D0  503F               	movf	??_I2C1_DO_TX^(0+1280),w,c
  4768   0026D2  0A01               	xorlw	1	; case 1
  4769   0026D4  B4D8               	btfsc	status,2,c
  4770   0026D6  EF49  F013         	goto	l3171
  4771   0026DA  0A03               	xorlw	3	; case 2
  4772   0026DC  B4D8               	btfsc	status,2,c
  4773   0026DE  EF41  F013         	goto	l3163
  4774   0026E2  0A01               	xorlw	1	; case 3
  4775   0026E4  B4D8               	btfsc	status,2,c
  4776   0026E6  EF45  F013         	goto	l3167
  4777   0026EA  0A07               	xorlw	7	; case 4
  4778   0026EC  B4D8               	btfsc	status,2,c
  4779   0026EE  EF49  F013         	goto	l3171
  4780   0026F2  EF49  F013         	goto	l3171
  4781   0026F6                     l3179:
  4782   0026F6  EC9C  F01A         	call	_I2C1_MasterIsTxBufEmpty	;wreg free
  4783   0026FA  0900               	iorlw	0
  4784   0026FC  B4D8               	btfsc	status,2,c
  4785   0026FE  EF83  F013         	goto	u901
  4786   002702  EF85  F013         	goto	u900
  4787   002706                     u901:
  4788   002706  EFC3  F013         	goto	l3205
  4789   00270A                     u900:
  4790   00270A                     
  4791                           ;mcc_generated_files/i2c1_master.c: 420:     {;mcc_generated_files/i2c1_master.c: 421:  
      +                                 if(I2C1_Status.addressNackCheck)
  4792   00270A  502A               	movf	(_I2C1_Status+41)^(0+1280),w,c
  4793   00270C  0B03               	andlw	3
  4794   00270E  0900               	iorlw	0
  4795   002710  B4D8               	btfsc	status,2,c
  4796   002712  EF8D  F013         	goto	u911
  4797   002716  EF8F  F013         	goto	u910
  4798   00271A                     u911:
  4799   00271A  EF9B  F013         	goto	l3185
  4800   00271E                     u910:
  4801   00271E                     
  4802                           ;mcc_generated_files/i2c1_master.c: 422:         {;mcc_generated_files/i2c1_master.c: 42
      +                          3:             I2C1_Status.addressNackCheck--;
  4803   00271E  0E01               	movlw	1
  4804   002720  6E3F               	movwf	??_I2C1_DO_TX^(0+1280),c
  4805   002722  502A               	movf	(_I2C1_Status+41)^(0+1280),w,c
  4806   002724  0B03               	andlw	3
  4807   002726  6E40               	movwf	(??_I2C1_DO_TX+1)^(0+1280),c
  4808   002728  503F               	movf	??_I2C1_DO_TX^(0+1280),w,c
  4809   00272A  5E40               	subwf	(??_I2C1_DO_TX+1)^(0+1280),f,c
  4810   00272C  502A               	movf	(_I2C1_Status+41)^(0+1280),w,c
  4811   00272E  1840               	xorwf	(??_I2C1_DO_TX+1)^(0+1280),w,c
  4812   002730  0BFC               	andlw	-4
  4813   002732  1840               	xorwf	(??_I2C1_DO_TX+1)^(0+1280),w,c
  4814   002734  6E2A               	movwf	(_I2C1_Status+41)^(0+1280),c
  4815   002736                     l3185:
  4816                           
  4817                           ;mcc_generated_files/i2c1_master.c: 425:         uint8_t dataTx = *I2C1_Status.data_ptr+
      +                          +;
  4818   002736  C524  F4D9         	movff	_I2C1_Status+35,fsr2l
  4819   00273A  C525  F4DA         	movff	_I2C1_Status+36,fsr2h
  4820   00273E  50DF               	movf	indf2,w,c
  4821   002740  6E43               	movwf	I2C1_DO_TX@dataTx^(0+1280),c
  4822   002742  4A24               	infsnz	(_I2C1_Status+35)^(0+1280),f,c
  4823   002744  2A25               	incf	(_I2C1_Status+36)^(0+1280),f,c
  4824   002746                     
  4825                           ;mcc_generated_files/i2c1_master.c: 426:         i2c1_fsm_states_t retFsmState = (--I2C1
      +                          _Status.data_length)?I2C1_TX:I2C1_DO_TX_EMPTY();
  4826   002746  0626               	decf	(_I2C1_Status+37)^(0+1280),f,c
  4827   002748  A0D8               	btfss	status,0,c
  4828   00274A  0627               	decf	(_I2C1_Status+38)^(0+1280),f,c
  4829   00274C  5026               	movf	(_I2C1_Status+37)^(0+1280),w,c
  4830   00274E  1027               	iorwf	(_I2C1_Status+38)^(0+1280),w,c
  4831   002750  A4D8               	btfss	status,2,c
  4832   002752  EFAD  F013         	goto	u921
  4833   002756  EFAF  F013         	goto	u920
  4834   00275A                     u921:
  4835   00275A  EFB7  F013         	goto	l3193
  4836   00275E                     u920:
  4837   00275E  EC9A  F016         	call	_I2C1_DO_TX_EMPTY	;wreg free
  4838   002762  6E3F               	movwf	??_I2C1_DO_TX^(0+1280),c
  4839   002764  503F               	movf	??_I2C1_DO_TX^(0+1280),w,c
  4840   002766  6E41               	movwf	_I2C1_DO_TX$1411^(0+1280),c
  4841   002768  6A42               	clrf	(_I2C1_DO_TX$1411+1)^(0+1280),c
  4842   00276A  EFBB  F013         	goto	l3195
  4843   00276E                     l3193:
  4844   00276E  0E00               	movlw	0
  4845   002770  6E42               	movwf	(_I2C1_DO_TX$1411+1)^(0+1280),c
  4846   002772  0E03               	movlw	3
  4847   002774  6E41               	movwf	_I2C1_DO_TX$1411^(0+1280),c
  4848   002776                     l3195:
  4849   002776  C541  F544         	movff	_I2C1_DO_TX$1411,I2C1_DO_TX@retFsmState
  4850   00277A                     
  4851                           ;mcc_generated_files/i2c1_master.c: 427:         I2C1_MasterSendTxData(dataTx);
  4852   00277A  5043               	movf	I2C1_DO_TX@dataTx^(0+1280),w,c
  4853   00277C  EC4A  F01B         	call	_I2C1_MasterSendTxData
  4854   002780                     
  4855                           ;mcc_generated_files/i2c1_master.c: 428:         return retFsmState;
  4856   002780  5044               	movf	I2C1_DO_TX@retFsmState^(0+1280),w,c
  4857   002782  EFC4  F013         	goto	l614
  4858   002786                     l3205:
  4859                           
  4860                           ;mcc_generated_files/i2c1_master.c: 431:     {;mcc_generated_files/i2c1_master.c: 432:  
      +                                 return I2C1_TX;
  4861   002786  0E03               	movlw	3
  4862   002788                     l614:
  4863   002788  0012               	return		;funcret
  4864   00278A                     __end_of_I2C1_DO_TX:
  4865                           	callstack 0
  4866                           
  4867 ;; *************** function _I2C1_DO_SEND_ADR_WRITE *****************
  4868 ;; Defined at:
  4869 ;;		line 396 in file "mcc_generated_files/i2c1_master.c"
  4870 ;; Parameters:    Size  Location     Type
  4871 ;;		None
  4872 ;; Auto vars:     Size  Location     Type
  4873 ;;		None
  4874 ;; Return value:  Size  Location     Type
  4875 ;;                  1    wreg      enum E17495
  4876 ;; Registers used:
  4877 ;;		wreg, status,2, status,0, cstack
  4878 ;; Tracked objects:
  4879 ;;		On entry : 0/0
  4880 ;;		On exit  : 0/0
  4881 ;;		Unchanged: 0/0
  4882 ;; Data sizes:     COMRAM   BANK5   BANK6   BANK7   BANK8   BANK9  BANK10  BANK11  BANK12  BANK13  BANK14  BANK15  BANK1
      +6  BANK17  BANK18  BANK19  BANK20  BANK21  BANK22  BANK23  BANK24  BANK25  BANK26  BANK27  BANK28  BANK29  BANK30  BANK3
      +1  BANK32  BANK33  BANK34  BANK35  BANK36
  4883 ;;      Params:         0       0       0       0       0       0       0       0       0       0       0       0       
      +0       0       0       0       0       0       0       0       0       0       0       0       0       0       0       
      +0       0       0       0       0       0
  4884 ;;      Locals:         0       0       0       0       0       0       0       0       0       0       0       0       
      +0       0       0       0       0       0       0       0       0       0       0       0       0       0       0       
      +0       0       0       0       0       0
  4885 ;;      Temps:          0       0       0       0       0       0       0       0       0       0       0       0       
      +0       0       0       0       0       0       0       0       0       0       0       0       0       0       0       
      +0       0       0       0       0       0
  4886 ;;      Totals:         0       0       0       0       0       0       0       0       0       0       0       0       
      +0       0       0       0       0       0       0       0       0       0       0       0       0       0       0       
      +0       0       0       0       0       0
  4887 ;;Total ram usage:        0 bytes
  4888 ;; Hardware stack levels used: 1
  4889 ;; Hardware stack levels required when called: 1
  4890 ;; This function calls:
  4891 ;;		_I2C1_MasterSendTxData
  4892 ;; This function is called by:
  4893 ;;		_I2C1_MasterOperation
  4894 ;;		_I2C1_MasterFsm
  4895 ;; This function uses a non-reentrant model
  4896 ;;
  4897                           
  4898                           	psect	text46
  4899   0035BC                     __ptext46:
  4900                           	callstack 0
  4901   0035BC                     _I2C1_DO_SEND_ADR_WRITE:
  4902                           	callstack 116
  4903   0035BC                     
  4904                           ;mcc_generated_files/i2c1_master.c: 398:     I2C1_Status.addressNackCheck = 2;
  4905   0035BC  502A               	movf	(_I2C1_Status+41)^(0+1280),w,c
  4906   0035BE  0BFC               	andlw	-4
  4907   0035C0  0902               	iorlw	2
  4908   0035C2  6E2A               	movwf	(_I2C1_Status+41)^(0+1280),c
  4909   0035C4                     
  4910                           ;mcc_generated_files/i2c1_master.c: 399:     I2C1_MasterSendTxData((uint8_t) (I2C1_Statu
      +                          s.address << 1));
  4911   0035C4  5023               	movf	(_I2C1_Status+34)^(0+1280),w,c
  4912   0035C6  2423               	addwf	(_I2C1_Status+34)^(0+1280),w,c
  4913   0035C8  EC4A  F01B         	call	_I2C1_MasterSendTxData
  4914   0035CC                     
  4915                           ;mcc_generated_files/i2c1_master.c: 400:     return I2C1_TX;
  4916   0035CC  0E03               	movlw	3
  4917   0035CE  0012               	return		;funcret
  4918   0035D0                     __end_of_I2C1_DO_SEND_ADR_WRITE:
  4919                           	callstack 0
  4920                           
  4921 ;; *************** function _I2C1_DO_SEND_ADR_READ *****************
  4922 ;; Defined at:
  4923 ;;		line 385 in file "mcc_generated_files/i2c1_master.c"
  4924 ;; Parameters:    Size  Location     Type
  4925 ;;		None
  4926 ;; Auto vars:     Size  Location     Type
  4927 ;;		None
  4928 ;; Return value:  Size  Location     Type
  4929 ;;                  1    wreg      enum E17495
  4930 ;; Registers used:
  4931 ;;		wreg, fsr2l, fsr2h, status,2, status,0, pcl, pclath, pclatu, tosl, prodl, prodh, cstack
  4932 ;; Tracked objects:
  4933 ;;		On entry : 0/0
  4934 ;;		On exit  : 0/0
  4935 ;;		Unchanged: 0/0
  4936 ;; Data sizes:     COMRAM   BANK5   BANK6   BANK7   BANK8   BANK9  BANK10  BANK11  BANK12  BANK13  BANK14  BANK15  BANK1
      +6  BANK17  BANK18  BANK19  BANK20  BANK21  BANK22  BANK23  BANK24  BANK25  BANK26  BANK27  BANK28  BANK29  BANK30  BANK3
      +1  BANK32  BANK33  BANK34  BANK35  BANK36
  4937 ;;      Params:         0       0       0       0       0       0       0       0       0       0       0       0       
      +0       0       0       0       0       0       0       0       0       0       0       0       0       0       0       
      +0       0       0       0       0       0
  4938 ;;      Locals:         0       0       0       0       0       0       0       0       0       0       0       0       
      +0       0       0       0       0       0       0       0       0       0       0       0       0       0       0       
      +0       0       0       0       0       0
  4939 ;;      Temps:          0       0       0       0       0       0       0       0       0       0       0       0       
      +0       0       0       0       0       0       0       0       0       0       0       0       0       0       0       
      +0       0       0       0       0       0
  4940 ;;      Totals:         0       0       0       0       0       0       0       0       0       0       0       0       
      +0       0       0       0       0       0       0       0       0       0       0       0       0       0       0       
      +0       0       0       0       0       0
  4941 ;;Total ram usage:        0 bytes
  4942 ;; Hardware stack levels used: 1
  4943 ;; Hardware stack levels required when called: 4
  4944 ;; This function calls:
  4945 ;;		_I2C1_DO_RX_EMPTY
  4946 ;;		_I2C1_MasterSendTxData
  4947 ;; This function is called by:
  4948 ;;		_I2C1_MasterOperation
  4949 ;;		_I2C1_DO_SEND_RESTART_READ
  4950 ;;		_I2C1_MasterFsm
  4951 ;; This function uses a non-reentrant model
  4952 ;;
  4953                           
  4954                           	psect	text47
  4955   003372                     __ptext47:
  4956                           	callstack 0
  4957   003372                     _I2C1_DO_SEND_ADR_READ:
  4958                           	callstack 111
  4959   003372                     
  4960                           ;mcc_generated_files/i2c1_master.c: 387:     I2C1_Status.addressNackCheck = 2;
  4961   003372  502A               	movf	(_I2C1_Status+41)^(0+1280),w,c
  4962   003374  0BFC               	andlw	-4
  4963   003376  0902               	iorlw	2
  4964   003378  6E2A               	movwf	(_I2C1_Status+41)^(0+1280),c
  4965   00337A                     
  4966                           ;mcc_generated_files/i2c1_master.c: 388:     if(I2C1_Status.data_length == 1)
  4967   00337A  0426               	decf	(_I2C1_Status+37)^(0+1280),w,c
  4968   00337C  1027               	iorwf	(_I2C1_Status+38)^(0+1280),w,c
  4969   00337E  A4D8               	btfss	status,2,c
  4970   003380  EFC4  F019         	goto	u841
  4971   003384  EFC6  F019         	goto	u840
  4972   003388                     u841:
  4973   003388  EFC8  F019         	goto	l3099
  4974   00338C                     u840:
  4975   00338C                     
  4976                           ;mcc_generated_files/i2c1_master.c: 389:     {;mcc_generated_files/i2c1_master.c: 390:  
      +                                 I2C1_DO_RX_EMPTY();
  4977   00338C  EC3B  F015         	call	_I2C1_DO_RX_EMPTY	;wreg free
  4978   003390                     l3099:
  4979                           
  4980                           ;mcc_generated_files/i2c1_master.c: 392:     I2C1_MasterSendTxData((uint8_t) (I2C1_Statu
      +                          s.address << 1 | 1));
  4981   003390  80D8               	bsf	status,0,c
  4982   003392  3423               	rlcf	(_I2C1_Status+34)^(0+1280),w,c
  4983   003394  EC4A  F01B         	call	_I2C1_MasterSendTxData
  4984   003398                     
  4985                           ;mcc_generated_files/i2c1_master.c: 393:     return I2C1_RX;
  4986   003398  0E04               	movlw	4
  4987   00339A  0012               	return		;funcret
  4988   00339C                     __end_of_I2C1_DO_SEND_ADR_READ:
  4989                           	callstack 0
  4990                           
  4991 ;; *************** function _I2C1_DO_IDLE *****************
  4992 ;; Defined at:
  4993 ;;		line 378 in file "mcc_generated_files/i2c1_master.c"
  4994 ;; Parameters:    Size  Location     Type
  4995 ;;		None
  4996 ;; Auto vars:     Size  Location     Type
  4997 ;;		None
  4998 ;; Return value:  Size  Location     Type
  4999 ;;                  1    wreg      enum E17495
  5000 ;; Registers used:
  5001 ;;		wreg, status,2
  5002 ;; Tracked objects:
  5003 ;;		On entry : 0/0
  5004 ;;		On exit  : 0/0
  5005 ;;		Unchanged: 0/0
  5006 ;; Data sizes:     COMRAM   BANK5   BANK6   BANK7   BANK8   BANK9  BANK10  BANK11  BANK12  BANK13  BANK14  BANK15  BANK1
      +6  BANK17  BANK18  BANK19  BANK20  BANK21  BANK22  BANK23  BANK24  BANK25  BANK26  BANK27  BANK28  BANK29  BANK30  BANK3
      +1  BANK32  BANK33  BANK34  BANK35  BANK36
  5007 ;;      Params:         0       0       0       0       0       0       0       0       0       0       0       0       
      +0       0       0       0       0       0       0       0       0       0       0       0       0       0       0       
      +0       0       0       0       0       0
  5008 ;;      Locals:         0       0       0       0       0       0       0       0       0       0       0       0       
      +0       0       0       0       0       0       0       0       0       0       0       0       0       0       0       
      +0       0       0       0       0       0
  5009 ;;      Temps:          0       0       0       0       0       0       0       0       0       0       0       0       
      +0       0       0       0       0       0       0       0       0       0       0       0       0       0       0       
      +0       0       0       0       0       0
  5010 ;;      Totals:         0       0       0       0       0       0       0       0       0       0       0       0       
      +0       0       0       0       0       0       0       0       0       0       0       0       0       0       0       
      +0       0       0       0       0       0
  5011 ;;Total ram usage:        0 bytes
  5012 ;; Hardware stack levels used: 1
  5013 ;; This function calls:
  5014 ;;		Nothing
  5015 ;; This function is called by:
  5016 ;;		_I2C1_DO_RX_NACK_STOP
  5017 ;;		_I2C1_MasterFsm
  5018 ;; This function uses a non-reentrant model
  5019 ;;
  5020                           
  5021                           	psect	text48
  5022   003660                     __ptext48:
  5023                           	callstack 0
  5024   003660                     _I2C1_DO_IDLE:
  5025                           	callstack 116
  5026   003660                     
  5027                           ;mcc_generated_files/i2c1_master.c: 380:     I2C1_Status.busy = 0;
  5028   003660  942A               	bcf	(_I2C1_Status+41)^(0+1280),2,c
  5029   003662                     
  5030                           ;mcc_generated_files/i2c1_master.c: 381:     I2C1_Status.error = I2C1_NOERR;
  5031   003662  0E00               	movlw	0
  5032   003664  6E29               	movwf	(_I2C1_Status+40)^(0+1280),c
  5033   003666                     
  5034                           ;mcc_generated_files/i2c1_master.c: 382:     return I2C1_RESET;
  5035   003666  0E0F               	movlw	15
  5036   003668  0012               	return		;funcret
  5037   00366A                     __end_of_I2C1_DO_IDLE:
  5038                           	callstack 0
  5039                           
  5040 ;; *************** function _I2C1_DO_TX_ACK *****************
  5041 ;; Defined at:
  5042 ;;		line 538 in file "mcc_generated_files/i2c1_master.c"
  5043 ;; Parameters:    Size  Location     Type
  5044 ;;		None
  5045 ;; Auto vars:     Size  Location     Type
  5046 ;;		None
  5047 ;; Return value:  Size  Location     Type
  5048 ;;                  1    wreg      enum E17495
  5049 ;; Registers used:
  5050 ;;		wreg, cstack
  5051 ;; Tracked objects:
  5052 ;;		On entry : 0/0
  5053 ;;		On exit  : 0/0
  5054 ;;		Unchanged: 0/0
  5055 ;; Data sizes:     COMRAM   BANK5   BANK6   BANK7   BANK8   BANK9  BANK10  BANK11  BANK12  BANK13  BANK14  BANK15  BANK1
      +6  BANK17  BANK18  BANK19  BANK20  BANK21  BANK22  BANK23  BANK24  BANK25  BANK26  BANK27  BANK28  BANK29  BANK30  BANK3
      +1  BANK32  BANK33  BANK34  BANK35  BANK36
  5056 ;;      Params:         0       0       0       0       0       0       0       0       0       0       0       0       
      +0       0       0       0       0       0       0       0       0       0       0       0       0       0       0       
      +0       0       0       0       0       0
  5057 ;;      Locals:         0       0       0       0       0       0       0       0       0       0       0       0       
      +0       0       0       0       0       0       0       0       0       0       0       0       0       0       0       
      +0       0       0       0       0       0
  5058 ;;      Temps:          0       0       0       0       0       0       0       0       0       0       0       0       
      +0       0       0       0       0       0       0       0       0       0       0       0       0       0       0       
      +0       0       0       0       0       0
  5059 ;;      Totals:         0       0       0       0       0       0       0       0       0       0       0       0       
      +0       0       0       0       0       0       0       0       0       0       0       0       0       0       0       
      +0       0       0       0       0       0
  5060 ;;Total ram usage:        0 bytes
  5061 ;; Hardware stack levels used: 1
  5062 ;; Hardware stack levels required when called: 1
  5063 ;; This function calls:
  5064 ;;		_I2C1_MasterSendAck
  5065 ;; This function is called by:
  5066 ;;		_I2C1_MasterFsm
  5067 ;; This function uses a non-reentrant model
  5068 ;;
  5069                           
  5070                           	psect	text49
  5071   00368C                     __ptext49:
  5072                           	callstack 0
  5073   00368C                     _I2C1_DO_TX_ACK:
  5074                           	callstack 116
  5075   00368C                     
  5076                           ;mcc_generated_files/i2c1_master.c: 540:     I2C1_MasterSendAck();
  5077   00368C  EC5F  F01B         	call	_I2C1_MasterSendAck	;wreg free
  5078   003690                     
  5079                           ;mcc_generated_files/i2c1_master.c: 541:     return I2C1_TX;
  5080   003690  0E03               	movlw	3
  5081   003692  0012               	return		;funcret
  5082   003694                     __end_of_I2C1_DO_TX_ACK:
  5083                           	callstack 0
  5084                           
  5085 ;; *************** function _I2C1_MasterIsTxBufEmpty *****************
  5086 ;; Defined at:
  5087 ;;		line 740 in file "mcc_generated_files/i2c1_master.c"
  5088 ;; Parameters:    Size  Location     Type
  5089 ;;		None
  5090 ;; Auto vars:     Size  Location     Type
  5091 ;;		None
  5092 ;; Return value:  Size  Location     Type
  5093 ;;                  1    wreg      _Bool 
  5094 ;; Registers used:
  5095 ;;		wreg
  5096 ;; Tracked objects:
  5097 ;;		On entry : 0/0
  5098 ;;		On exit  : 0/0
  5099 ;;		Unchanged: 0/0
  5100 ;; Data sizes:     COMRAM   BANK5   BANK6   BANK7   BANK8   BANK9  BANK10  BANK11  BANK12  BANK13  BANK14  BANK15  BANK1
      +6  BANK17  BANK18  BANK19  BANK20  BANK21  BANK22  BANK23  BANK24  BANK25  BANK26  BANK27  BANK28  BANK29  BANK30  BANK3
      +1  BANK32  BANK33  BANK34  BANK35  BANK36
  5101 ;;      Params:         0       0       0       0       0       0       0       0       0       0       0       0       
      +0       0       0       0       0       0       0       0       0       0       0       0       0       0       0       
      +0       0       0       0       0       0
  5102 ;;      Locals:         0       0       0       0       0       0       0       0       0       0       0       0       
      +0       0       0       0       0       0       0       0       0       0       0       0       0       0       0       
      +0       0       0       0       0       0
  5103 ;;      Temps:          0       0       0       0       0       0       0       0       0       0       0       0       
      +0       0       0       0       0       0       0       0       0       0       0       0       0       0       0       
      +0       0       0       0       0       0
  5104 ;;      Totals:         0       0       0       0       0       0       0       0       0       0       0       0       
      +0       0       0       0       0       0       0       0       0       0       0       0       0       0       0       
      +0       0       0       0       0       0
  5105 ;;Total ram usage:        0 bytes
  5106 ;; Hardware stack levels used: 1
  5107 ;; This function calls:
  5108 ;;		Nothing
  5109 ;; This function is called by:
  5110 ;;		_I2C1_DO_TX
  5111 ;; This function uses a non-reentrant model
  5112 ;;
  5113                           
  5114                           	psect	text50
  5115   003538                     __ptext50:
  5116                           	callstack 0
  5117   003538                     _I2C1_MasterIsTxBufEmpty:
  5118                           	callstack 116
  5119   003538                     
  5120                           ;mcc_generated_files/i2c1_master.c: 742:     return I2C1STAT1bits.TXBE;
  5121   003538  0102               	movlb	2	; () banked
  5122   00353A  BB99               	btfsc	153,5,b	;volatile
  5123   00353C  EFA2  F01A         	goto	u861
  5124   003540  EFA5  F01A         	goto	u860
  5125   003544                     u861:
  5126   003544  0E01               	movlw	1
  5127   003546  EFA6  F01A         	goto	u866
  5128   00354A                     u860:
  5129   00354A  0E00               	movlw	0
  5130   00354C                     u866:
  5131   00354C                     
  5132                           ; BSR set to: 2
  5133   00354C  0012               	return		;funcret
  5134   00354E                     __end_of_I2C1_MasterIsTxBufEmpty:
  5135                           	callstack 0
  5136                           
  5137 ;; *************** function _I2C1_MasterIsNack *****************
  5138 ;; Defined at:
  5139 ;;		line 713 in file "mcc_generated_files/i2c1_master.c"
  5140 ;; Parameters:    Size  Location     Type
  5141 ;;		None
  5142 ;; Auto vars:     Size  Location     Type
  5143 ;;		None
  5144 ;; Return value:  Size  Location     Type
  5145 ;;                  1    wreg      _Bool 
  5146 ;; Registers used:
  5147 ;;		wreg
  5148 ;; Tracked objects:
  5149 ;;		On entry : 0/0
  5150 ;;		On exit  : 0/0
  5151 ;;		Unchanged: 0/0
  5152 ;; Data sizes:     COMRAM   BANK5   BANK6   BANK7   BANK8   BANK9  BANK10  BANK11  BANK12  BANK13  BANK14  BANK15  BANK1
      +6  BANK17  BANK18  BANK19  BANK20  BANK21  BANK22  BANK23  BANK24  BANK25  BANK26  BANK27  BANK28  BANK29  BANK30  BANK3
      +1  BANK32  BANK33  BANK34  BANK35  BANK36
  5153 ;;      Params:         0       0       0       0       0       0       0       0       0       0       0       0       
      +0       0       0       0       0       0       0       0       0       0       0       0       0       0       0       
      +0       0       0       0       0       0
  5154 ;;      Locals:         0       0       0       0       0       0       0       0       0       0       0       0       
      +0       0       0       0       0       0       0       0       0       0       0       0       0       0       0       
      +0       0       0       0       0       0
  5155 ;;      Temps:          0       0       0       0       0       0       0       0       0       0       0       0       
      +0       0       0       0       0       0       0       0       0       0       0       0       0       0       0       
      +0       0       0       0       0       0
  5156 ;;      Totals:         0       0       0       0       0       0       0       0       0       0       0       0       
      +0       0       0       0       0       0       0       0       0       0       0       0       0       0       0       
      +0       0       0       0       0       0
  5157 ;;Total ram usage:        0 bytes
  5158 ;; Hardware stack levels used: 1
  5159 ;; This function calls:
  5160 ;;		Nothing
  5161 ;; This function is called by:
  5162 ;;		_I2C1_MasterFsm
  5163 ;;		_I2C1_DO_TX
  5164 ;; This function uses a non-reentrant model
  5165 ;;
  5166                           
  5167                           	psect	text51
  5168   00354E                     __ptext51:
  5169                           	callstack 0
  5170   00354E                     _I2C1_MasterIsNack:
  5171                           	callstack 117
  5172   00354E                     
  5173                           ;mcc_generated_files/i2c1_master.c: 715:     return I2C1CON1bits.ACKSTAT;
  5174   00354E  0102               	movlb	2	; () banked
  5175   003550  BB95               	btfsc	149,5,b	;volatile
  5176   003552  EFAD  F01A         	goto	u851
  5177   003556  EFB0  F01A         	goto	u850
  5178   00355A                     u851:
  5179   00355A  0E01               	movlw	1
  5180   00355C  EFB1  F01A         	goto	u856
  5181   003560                     u850:
  5182   003560  0E00               	movlw	0
  5183   003562                     u856:
  5184   003562                     
  5185                           ; BSR set to: 2
  5186   003562  0012               	return		;funcret
  5187   003564                     __end_of_I2C1_MasterIsNack:
  5188                           	callstack 0
  5189                           
  5190 ;; *************** function _I2C1_MasterGetCounter *****************
  5191 ;; Defined at:
  5192 ;;		line 675 in file "mcc_generated_files/i2c1_master.c"
  5193 ;; Parameters:    Size  Location     Type
  5194 ;;		None
  5195 ;; Auto vars:     Size  Location     Type
  5196 ;;		None
  5197 ;; Return value:  Size  Location     Type
  5198 ;;                  1    wreg      unsigned char 
  5199 ;; Registers used:
  5200 ;;		wreg, status,2
  5201 ;; Tracked objects:
  5202 ;;		On entry : 0/0
  5203 ;;		On exit  : 0/0
  5204 ;;		Unchanged: 0/0
  5205 ;; Data sizes:     COMRAM   BANK5   BANK6   BANK7   BANK8   BANK9  BANK10  BANK11  BANK12  BANK13  BANK14  BANK15  BANK1
      +6  BANK17  BANK18  BANK19  BANK20  BANK21  BANK22  BANK23  BANK24  BANK25  BANK26  BANK27  BANK28  BANK29  BANK30  BANK3
      +1  BANK32  BANK33  BANK34  BANK35  BANK36
  5206 ;;      Params:         0       0       0       0       0       0       0       0       0       0       0       0       
      +0       0       0       0       0       0       0       0       0       0       0       0       0       0       0       
      +0       0       0       0       0       0
  5207 ;;      Locals:         0       0       0       0       0       0       0       0       0       0       0       0       
      +0       0       0       0       0       0       0       0       0       0       0       0       0       0       0       
      +0       0       0       0       0       0
  5208 ;;      Temps:          0       0       0       0       0       0       0       0       0       0       0       0       
      +0       0       0       0       0       0       0       0       0       0       0       0       0       0       0       
      +0       0       0       0       0       0
  5209 ;;      Totals:         0       0       0       0       0       0       0       0       0       0       0       0       
      +0       0       0       0       0       0       0       0       0       0       0       0       0       0       0       
      +0       0       0       0       0       0
  5210 ;;Total ram usage:        0 bytes
  5211 ;; Hardware stack levels used: 1
  5212 ;; This function calls:
  5213 ;;		Nothing
  5214 ;; This function is called by:
  5215 ;;		_I2C1_DO_SEND_STOP
  5216 ;; This function uses a non-reentrant model
  5217 ;;
  5218                           
  5219                           	psect	text52
  5220   0036AC                     __ptext52:
  5221                           	callstack 0
  5222   0036AC                     _I2C1_MasterGetCounter:
  5223                           	callstack 116
  5224   0036AC                     
  5225                           ;mcc_generated_files/i2c1_master.c: 677:     return I2C1CNT;
  5226   0036AC  0102               	movlb	2	; () banked
  5227   0036AE  518D               	movf	141,w,b	;volatile
  5228   0036B0                     
  5229                           ; BSR set to: 2
  5230   0036B0  0012               	return		;funcret
  5231   0036B2                     __end_of_I2C1_MasterGetCounter:
  5232                           	callstack 0
  5233                           
  5234 ;; *************** function _I2C1_MasterStop *****************
  5235 ;; Defined at:
  5236 ;;		line 707 in file "mcc_generated_files/i2c1_master.c"
  5237 ;; Parameters:    Size  Location     Type
  5238 ;;		None
  5239 ;; Auto vars:     Size  Location     Type
  5240 ;;		None
  5241 ;; Return value:  Size  Location     Type
  5242 ;;                  1    wreg      void 
  5243 ;; Registers used:
  5244 ;;		None
  5245 ;; Tracked objects:
  5246 ;;		On entry : 0/0
  5247 ;;		On exit  : 0/0
  5248 ;;		Unchanged: 0/0
  5249 ;; Data sizes:     COMRAM   BANK5   BANK6   BANK7   BANK8   BANK9  BANK10  BANK11  BANK12  BANK13  BANK14  BANK15  BANK1
      +6  BANK17  BANK18  BANK19  BANK20  BANK21  BANK22  BANK23  BANK24  BANK25  BANK26  BANK27  BANK28  BANK29  BANK30  BANK3
      +1  BANK32  BANK33  BANK34  BANK35  BANK36
  5250 ;;      Params:         0       0       0       0       0       0       0       0       0       0       0       0       
      +0       0       0       0       0       0       0       0       0       0       0       0       0       0       0       
      +0       0       0       0       0       0
  5251 ;;      Locals:         0       0       0       0       0       0       0       0       0       0       0       0       
      +0       0       0       0       0       0       0       0       0       0       0       0       0       0       0       
      +0       0       0       0       0       0
  5252 ;;      Temps:          0       0       0       0       0       0       0       0       0       0       0       0       
      +0       0       0       0       0       0       0       0       0       0       0       0       0       0       0       
      +0       0       0       0       0       0
  5253 ;;      Totals:         0       0       0       0       0       0       0       0       0       0       0       0       
      +0       0       0       0       0       0       0       0       0       0       0       0       0       0       0       
      +0       0       0       0       0       0
  5254 ;;Total ram usage:        0 bytes
  5255 ;; Hardware stack levels used: 1
  5256 ;; This function calls:
  5257 ;;		Nothing
  5258 ;; This function is called by:
  5259 ;;		_I2C1_DO_SEND_STOP
  5260 ;;		_I2C1_DO_RX_NACK_STOP
  5261 ;; This function uses a non-reentrant model
  5262 ;;
  5263                           
  5264                           	psect	text53
  5265   0036B2                     __ptext53:
  5266                           	callstack 0
  5267   0036B2                     _I2C1_MasterStop:
  5268                           	callstack 116
  5269   0036B2                     
  5270                           ;mcc_generated_files/i2c1_master.c: 710:     I2C1CON0bits.S = 0;
  5271   0036B2  0102               	movlb	2	; () banked
  5272   0036B4  9B94               	bcf	148,5,b	;volatile
  5273   0036B6                     
  5274                           ; BSR set to: 2
  5275   0036B6  0012               	return		;funcret
  5276   0036B8                     __end_of_I2C1_MasterStop:
  5277                           	callstack 0
  5278                           
  5279 ;; *************** function _I2C1_MasterSendNack *****************
  5280 ;; Defined at:
  5281 ;;		line 723 in file "mcc_generated_files/i2c1_master.c"
  5282 ;; Parameters:    Size  Location     Type
  5283 ;;		None
  5284 ;; Auto vars:     Size  Location     Type
  5285 ;;		None
  5286 ;; Return value:  Size  Location     Type
  5287 ;;                  1    wreg      void 
  5288 ;; Registers used:
  5289 ;;		None
  5290 ;; Tracked objects:
  5291 ;;		On entry : 0/0
  5292 ;;		On exit  : 0/0
  5293 ;;		Unchanged: 0/0
  5294 ;; Data sizes:     COMRAM   BANK5   BANK6   BANK7   BANK8   BANK9  BANK10  BANK11  BANK12  BANK13  BANK14  BANK15  BANK1
      +6  BANK17  BANK18  BANK19  BANK20  BANK21  BANK22  BANK23  BANK24  BANK25  BANK26  BANK27  BANK28  BANK29  BANK30  BANK3
      +1  BANK32  BANK33  BANK34  BANK35  BANK36
  5295 ;;      Params:         0       0       0       0       0       0       0       0       0       0       0       0       
      +0       0       0       0       0       0       0       0       0       0       0       0       0       0       0       
      +0       0       0       0       0       0
  5296 ;;      Locals:         0       0       0       0       0       0       0       0       0       0       0       0       
      +0       0       0       0       0       0       0       0       0       0       0       0       0       0       0       
      +0       0       0       0       0       0
  5297 ;;      Temps:          0       0       0       0       0       0       0       0       0       0       0       0       
      +0       0       0       0       0       0       0       0       0       0       0       0       0       0       0       
      +0       0       0       0       0       0
  5298 ;;      Totals:         0       0       0       0       0       0       0       0       0       0       0       0       
      +0       0       0       0       0       0       0       0       0       0       0       0       0       0       0       
      +0       0       0       0       0       0
  5299 ;;Total ram usage:        0 bytes
  5300 ;; Hardware stack levels used: 1
  5301 ;; This function calls:
  5302 ;;		Nothing
  5303 ;; This function is called by:
  5304 ;;		_I2C1_DO_RX_NACK_STOP
  5305 ;;		_I2C1_DO_RX_NACK_RESTART
  5306 ;; This function uses a non-reentrant model
  5307 ;;
  5308                           
  5309                           	psect	text54
  5310   0036B8                     __ptext54:
  5311                           	callstack 0
  5312   0036B8                     _I2C1_MasterSendNack:
  5313                           	callstack 116
  5314   0036B8                     
  5315                           ;mcc_generated_files/i2c1_master.c: 725:     I2C1CON1bits.ACKDT = 1;
  5316   0036B8  0102               	movlb	2	; () banked
  5317   0036BA  8D95               	bsf	149,6,b	;volatile
  5318   0036BC                     
  5319                           ; BSR set to: 2
  5320   0036BC  0012               	return		;funcret
  5321   0036BE                     __end_of_I2C1_MasterSendNack:
  5322                           	callstack 0
  5323                           
  5324 ;; *************** function _I2C1_MasterSendAck *****************
  5325 ;; Defined at:
  5326 ;;		line 718 in file "mcc_generated_files/i2c1_master.c"
  5327 ;; Parameters:    Size  Location     Type
  5328 ;;		None
  5329 ;; Auto vars:     Size  Location     Type
  5330 ;;		None
  5331 ;; Return value:  Size  Location     Type
  5332 ;;                  1    wreg      void 
  5333 ;; Registers used:
  5334 ;;		None
  5335 ;; Tracked objects:
  5336 ;;		On entry : 0/0
  5337 ;;		On exit  : 0/0
  5338 ;;		Unchanged: 0/0
  5339 ;; Data sizes:     COMRAM   BANK5   BANK6   BANK7   BANK8   BANK9  BANK10  BANK11  BANK12  BANK13  BANK14  BANK15  BANK1
      +6  BANK17  BANK18  BANK19  BANK20  BANK21  BANK22  BANK23  BANK24  BANK25  BANK26  BANK27  BANK28  BANK29  BANK30  BANK3
      +1  BANK32  BANK33  BANK34  BANK35  BANK36
  5340 ;;      Params:         0       0       0       0       0       0       0       0       0       0       0       0       
      +0       0       0       0       0       0       0       0       0       0       0       0       0       0       0       
      +0       0       0       0       0       0
  5341 ;;      Locals:         0       0       0       0       0       0       0       0       0       0       0       0       
      +0       0       0       0       0       0       0       0       0       0       0       0       0       0       0       
      +0       0       0       0       0       0
  5342 ;;      Temps:          0       0       0       0       0       0       0       0       0       0       0       0       
      +0       0       0       0       0       0       0       0       0       0       0       0       0       0       0       
      +0       0       0       0       0       0
  5343 ;;      Totals:         0       0       0       0       0       0       0       0       0       0       0       0       
      +0       0       0       0       0       0       0       0       0       0       0       0       0       0       0       
      +0       0       0       0       0       0
  5344 ;;Total ram usage:        0 bytes
  5345 ;; Hardware stack levels used: 1
  5346 ;; This function calls:
  5347 ;;		Nothing
  5348 ;; This function is called by:
  5349 ;;		_I2C1_DO_RX_ACK
  5350 ;;		_I2C1_DO_TX_ACK
  5351 ;; This function uses a non-reentrant model
  5352 ;;
  5353                           
  5354                           	psect	text55
  5355   0036BE                     __ptext55:
  5356                           	callstack 0
  5357   0036BE                     _I2C1_MasterSendAck:
  5358                           	callstack 116
  5359   0036BE                     
  5360                           ;mcc_generated_files/i2c1_master.c: 720:     I2C1CON1bits.ACKDT = 0;
  5361   0036BE  0102               	movlb	2	; () banked
  5362   0036C0  9D95               	bcf	149,6,b	;volatile
  5363   0036C2                     
  5364                           ; BSR set to: 2
  5365   0036C2  0012               	return		;funcret
  5366   0036C4                     __end_of_I2C1_MasterSendAck:
  5367                           	callstack 0
  5368                           
  5369 ;; *************** function _I2C1_MasterIsRxBufFull *****************
  5370 ;; Defined at:
  5371 ;;		line 735 in file "mcc_generated_files/i2c1_master.c"
  5372 ;; Parameters:    Size  Location     Type
  5373 ;;		None
  5374 ;; Auto vars:     Size  Location     Type
  5375 ;;		None
  5376 ;; Return value:  Size  Location     Type
  5377 ;;                  1    wreg      _Bool 
  5378 ;; Registers used:
  5379 ;;		wreg
  5380 ;; Tracked objects:
  5381 ;;		On entry : 0/0
  5382 ;;		On exit  : 0/0
  5383 ;;		Unchanged: 0/0
  5384 ;; Data sizes:     COMRAM   BANK5   BANK6   BANK7   BANK8   BANK9  BANK10  BANK11  BANK12  BANK13  BANK14  BANK15  BANK1
      +6  BANK17  BANK18  BANK19  BANK20  BANK21  BANK22  BANK23  BANK24  BANK25  BANK26  BANK27  BANK28  BANK29  BANK30  BANK3
      +1  BANK32  BANK33  BANK34  BANK35  BANK36
  5385 ;;      Params:         0       0       0       0       0       0       0       0       0       0       0       0       
      +0       0       0       0       0       0       0       0       0       0       0       0       0       0       0       
      +0       0       0       0       0       0
  5386 ;;      Locals:         0       0       0       0       0       0       0       0       0       0       0       0       
      +0       0       0       0       0       0       0       0       0       0       0       0       0       0       0       
      +0       0       0       0       0       0
  5387 ;;      Temps:          0       0       0       0       0       0       0       0       0       0       0       0       
      +0       0       0       0       0       0       0       0       0       0       0       0       0       0       0       
      +0       0       0       0       0       0
  5388 ;;      Totals:         0       0       0       0       0       0       0       0       0       0       0       0       
      +0       0       0       0       0       0       0       0       0       0       0       0       0       0       0       
      +0       0       0       0       0       0
  5389 ;;Total ram usage:        0 bytes
  5390 ;; Hardware stack levels used: 1
  5391 ;; This function calls:
  5392 ;;		Nothing
  5393 ;; This function is called by:
  5394 ;;		_I2C1_DO_RX
  5395 ;; This function uses a non-reentrant model
  5396 ;;
  5397                           
  5398                           	psect	text56
  5399   003564                     __ptext56:
  5400                           	callstack 0
  5401   003564                     _I2C1_MasterIsRxBufFull:
  5402                           	callstack 116
  5403   003564                     
  5404                           ;mcc_generated_files/i2c1_master.c: 737:     return I2C1STAT1bits.RXBF;
  5405   003564  0102               	movlb	2	; () banked
  5406   003566  B199               	btfsc	153,0,b	;volatile
  5407   003568  EFB8  F01A         	goto	u121
  5408   00356C  EFBB  F01A         	goto	u120
  5409   003570                     u121:
  5410   003570  0E01               	movlw	1
  5411   003572  EFBC  F01A         	goto	u126
  5412   003576                     u120:
  5413   003576  0E00               	movlw	0
  5414   003578                     u126:
  5415   003578                     
  5416                           ; BSR set to: 2
  5417   003578  0012               	return		;funcret
  5418   00357A                     __end_of_I2C1_MasterIsRxBufFull:
  5419                           	callstack 0
  5420                           
  5421 ;; *************** function _I2C1_MasterGetRxData *****************
  5422 ;; Defined at:
  5423 ;;		line 665 in file "mcc_generated_files/i2c1_master.c"
  5424 ;; Parameters:    Size  Location     Type
  5425 ;;		None
  5426 ;; Auto vars:     Size  Location     Type
  5427 ;;		None
  5428 ;; Return value:  Size  Location     Type
  5429 ;;                  1    wreg      unsigned char 
  5430 ;; Registers used:
  5431 ;;		wreg, status,2
  5432 ;; Tracked objects:
  5433 ;;		On entry : 0/0
  5434 ;;		On exit  : 0/0
  5435 ;;		Unchanged: 0/0
  5436 ;; Data sizes:     COMRAM   BANK5   BANK6   BANK7   BANK8   BANK9  BANK10  BANK11  BANK12  BANK13  BANK14  BANK15  BANK1
      +6  BANK17  BANK18  BANK19  BANK20  BANK21  BANK22  BANK23  BANK24  BANK25  BANK26  BANK27  BANK28  BANK29  BANK30  BANK3
      +1  BANK32  BANK33  BANK34  BANK35  BANK36
  5437 ;;      Params:         0       0       0       0       0       0       0       0       0       0       0       0       
      +0       0       0       0       0       0       0       0       0       0       0       0       0       0       0       
      +0       0       0       0       0       0
  5438 ;;      Locals:         0       0       0       0       0       0       0       0       0       0       0       0       
      +0       0       0       0       0       0       0       0       0       0       0       0       0       0       0       
      +0       0       0       0       0       0
  5439 ;;      Temps:          0       0       0       0       0       0       0       0       0       0       0       0       
      +0       0       0       0       0       0       0       0       0       0       0       0       0       0       0       
      +0       0       0       0       0       0
  5440 ;;      Totals:         0       0       0       0       0       0       0       0       0       0       0       0       
      +0       0       0       0       0       0       0       0       0       0       0       0       0       0       0       
      +0       0       0       0       0       0
  5441 ;;Total ram usage:        0 bytes
  5442 ;; Hardware stack levels used: 1
  5443 ;; This function calls:
  5444 ;;		Nothing
  5445 ;; This function is called by:
  5446 ;;		_I2C1_DO_RX
  5447 ;; This function uses a non-reentrant model
  5448 ;;
  5449                           
  5450                           	psect	text57
  5451   0036C4                     __ptext57:
  5452                           	callstack 0
  5453   0036C4                     _I2C1_MasterGetRxData:
  5454                           	callstack 116
  5455   0036C4                     
  5456                           ;mcc_generated_files/i2c1_master.c: 667:     return I2C1RXB;
  5457   0036C4  0102               	movlb	2	; () banked
  5458   0036C6  518B               	movf	139,w,b	;volatile
  5459   0036C8                     
  5460                           ; BSR set to: 2
  5461   0036C8  0012               	return		;funcret
  5462   0036CA                     __end_of_I2C1_MasterGetRxData:
  5463                           	callstack 0
  5464                           
  5465 ;; *************** function _I2C1_MasterSendTxData *****************
  5466 ;; Defined at:
  5467 ;;		line 670 in file "mcc_generated_files/i2c1_master.c"
  5468 ;; Parameters:    Size  Location     Type
  5469 ;;  data            1    wreg     unsigned char 
  5470 ;; Auto vars:     Size  Location     Type
  5471 ;;  data            1    0[COMRAM] unsigned char 
  5472 ;; Return value:  Size  Location     Type
  5473 ;;                  1    wreg      void 
  5474 ;; Registers used:
  5475 ;;		wreg
  5476 ;; Tracked objects:
  5477 ;;		On entry : 0/0
  5478 ;;		On exit  : 0/0
  5479 ;;		Unchanged: 0/0
  5480 ;; Data sizes:     COMRAM   BANK5   BANK6   BANK7   BANK8   BANK9  BANK10  BANK11  BANK12  BANK13  BANK14  BANK15  BANK1
      +6  BANK17  BANK18  BANK19  BANK20  BANK21  BANK22  BANK23  BANK24  BANK25  BANK26  BANK27  BANK28  BANK29  BANK30  BANK3
      +1  BANK32  BANK33  BANK34  BANK35  BANK36
  5481 ;;      Params:         0       0       0       0       0       0       0       0       0       0       0       0       
      +0       0       0       0       0       0       0       0       0       0       0       0       0       0       0       
      +0       0       0       0       0       0
  5482 ;;      Locals:         1       0       0       0       0       0       0       0       0       0       0       0       
      +0       0       0       0       0       0       0       0       0       0       0       0       0       0       0       
      +0       0       0       0       0       0
  5483 ;;      Temps:          0       0       0       0       0       0       0       0       0       0       0       0       
      +0       0       0       0       0       0       0       0       0       0       0       0       0       0       0       
      +0       0       0       0       0       0
  5484 ;;      Totals:         1       0       0       0       0       0       0       0       0       0       0       0       
      +0       0       0       0       0       0       0       0       0       0       0       0       0       0       0       
      +0       0       0       0       0       0
  5485 ;;Total ram usage:        1 bytes
  5486 ;; Hardware stack levels used: 1
  5487 ;; This function calls:
  5488 ;;		Nothing
  5489 ;; This function is called by:
  5490 ;;		_I2C1_DO_SEND_ADR_READ
  5491 ;;		_I2C1_DO_SEND_ADR_WRITE
  5492 ;;		_I2C1_DO_TX
  5493 ;;		_I2C1_DO_SEND_STOP
  5494 ;; This function uses a non-reentrant model
  5495 ;;
  5496                           
  5497                           	psect	text58
  5498   003694                     __ptext58:
  5499                           	callstack 0
  5500   003694                     _I2C1_MasterSendTxData:
  5501                           	callstack 116
  5502                           
  5503                           ; BSR set to: 2
  5504                           ;incstack = 0
  5505                           ;I2C1_MasterSendTxData@data stored from wreg
  5506   003694  6E32               	movwf	I2C1_MasterSendTxData@data^(0+1280),c
  5507   003696                     
  5508                           ;mcc_generated_files/i2c1_master.c: 670: static __attribute__((inline)) void I2C1_Master
      +                          SendTxData(uint8_t data);mcc_generated_files/i2c1_master.c: 671: {;mcc_generated_files/i
      +                          2c1_master.c: 672:     I2C1TXB = data;
  5509   003696  C532  F28C         	movff	I2C1_MasterSendTxData@data,652	;volatile
  5510   00369A  0012               	return		;funcret
  5511   00369C                     __end_of_I2C1_MasterSendTxData:
  5512                           	callstack 0
  5513                           
  5514 ;; *************** function _I2C1_MasterSetCounter *****************
  5515 ;; Defined at:
  5516 ;;		line 680 in file "mcc_generated_files/i2c1_master.c"
  5517 ;; Parameters:    Size  Location     Type
  5518 ;;  counter         1    wreg     unsigned char 
  5519 ;; Auto vars:     Size  Location     Type
  5520 ;;  counter         1    0[COMRAM] unsigned char 
  5521 ;; Return value:  Size  Location     Type
  5522 ;;                  1    wreg      void 
  5523 ;; Registers used:
  5524 ;;		wreg
  5525 ;; Tracked objects:
  5526 ;;		On entry : 0/0
  5527 ;;		On exit  : 0/0
  5528 ;;		Unchanged: 0/0
  5529 ;; Data sizes:     COMRAM   BANK5   BANK6   BANK7   BANK8   BANK9  BANK10  BANK11  BANK12  BANK13  BANK14  BANK15  BANK1
      +6  BANK17  BANK18  BANK19  BANK20  BANK21  BANK22  BANK23  BANK24  BANK25  BANK26  BANK27  BANK28  BANK29  BANK30  BANK3
      +1  BANK32  BANK33  BANK34  BANK35  BANK36
  5530 ;;      Params:         0       0       0       0       0       0       0       0       0       0       0       0       
      +0       0       0       0       0       0       0       0       0       0       0       0       0       0       0       
      +0       0       0       0       0       0
  5531 ;;      Locals:         1       0       0       0       0       0       0       0       0       0       0       0       
      +0       0       0       0       0       0       0       0       0       0       0       0       0       0       0       
      +0       0       0       0       0       0
  5532 ;;      Temps:          0       0       0       0       0       0       0       0       0       0       0       0       
      +0       0       0       0       0       0       0       0       0       0       0       0       0       0       0       
      +0       0       0       0       0       0
  5533 ;;      Totals:         1       0       0       0       0       0       0       0       0       0       0       0       
      +0       0       0       0       0       0       0       0       0       0       0       0       0       0       0       
      +0       0       0       0       0       0
  5534 ;;Total ram usage:        1 bytes
  5535 ;; Hardware stack levels used: 1
  5536 ;; This function calls:
  5537 ;;		Nothing
  5538 ;; This function is called by:
  5539 ;;		_I2C1_MasterOperation
  5540 ;;		_I2C1_DO_TX_EMPTY
  5541 ;;		_I2C1_DO_RX_EMPTY
  5542 ;;		_I2C1_DO_SEND_RESTART_READ
  5543 ;;		_I2C1_DO_SEND_STOP
  5544 ;; This function uses a non-reentrant model
  5545 ;;
  5546                           
  5547                           	psect	text59
  5548   00369C                     __ptext59:
  5549                           	callstack 0
  5550   00369C                     _I2C1_MasterSetCounter:
  5551                           	callstack 116
  5552                           
  5553                           ;incstack = 0
  5554                           ;I2C1_MasterSetCounter@counter stored from wreg
  5555   00369C  6E32               	movwf	I2C1_MasterSetCounter@counter^(0+1280),c
  5556   00369E                     
  5557                           ;mcc_generated_files/i2c1_master.c: 680: static __attribute__((inline)) void I2C1_Master
      +                          SetCounter(uint8_t counter);mcc_generated_files/i2c1_master.c: 681: {;mcc_generated_file
      +                          s/i2c1_master.c: 682:     I2C1CNT = counter;
  5558   00369E  C532  F28D         	movff	I2C1_MasterSetCounter@counter,653	;volatile
  5559   0036A2  0012               	return		;funcret
  5560   0036A4                     __end_of_I2C1_MasterSetCounter:
  5561                           	callstack 0
  5562                           
  5563 ;; *************** function _I2C1_MasterEnableRestart *****************
  5564 ;; Defined at:
  5565 ;;		line 695 in file "mcc_generated_files/i2c1_master.c"
  5566 ;; Parameters:    Size  Location     Type
  5567 ;;		None
  5568 ;; Auto vars:     Size  Location     Type
  5569 ;;		None
  5570 ;; Return value:  Size  Location     Type
  5571 ;;                  1    wreg      void 
  5572 ;; Registers used:
  5573 ;;		None
  5574 ;; Tracked objects:
  5575 ;;		On entry : 0/0
  5576 ;;		On exit  : 0/0
  5577 ;;		Unchanged: 0/0
  5578 ;; Data sizes:     COMRAM   BANK5   BANK6   BANK7   BANK8   BANK9  BANK10  BANK11  BANK12  BANK13  BANK14  BANK15  BANK1
      +6  BANK17  BANK18  BANK19  BANK20  BANK21  BANK22  BANK23  BANK24  BANK25  BANK26  BANK27  BANK28  BANK29  BANK30  BANK3
      +1  BANK32  BANK33  BANK34  BANK35  BANK36
  5579 ;;      Params:         0       0       0       0       0       0       0       0       0       0       0       0       
      +0       0       0       0       0       0       0       0       0       0       0       0       0       0       0       
      +0       0       0       0       0       0
  5580 ;;      Locals:         0       0       0       0       0       0       0       0       0       0       0       0       
      +0       0       0       0       0       0       0       0       0       0       0       0       0       0       0       
      +0       0       0       0       0       0
  5581 ;;      Temps:          0       0       0       0       0       0       0       0       0       0       0       0       
      +0       0       0       0       0       0       0       0       0       0       0       0       0       0       0       
      +0       0       0       0       0       0
  5582 ;;      Totals:         0       0       0       0       0       0       0       0       0       0       0       0       
      +0       0       0       0       0       0       0       0       0       0       0       0       0       0       0       
      +0       0       0       0       0       0
  5583 ;;Total ram usage:        0 bytes
  5584 ;; Hardware stack levels used: 1
  5585 ;; This function calls:
  5586 ;;		Nothing
  5587 ;; This function is called by:
  5588 ;;		_I2C1_DO_TX_EMPTY
  5589 ;;		_I2C1_DO_RX_EMPTY
  5590 ;; This function uses a non-reentrant model
  5591 ;;
  5592                           
  5593                           	psect	text60
  5594   0036CA                     __ptext60:
  5595                           	callstack 0
  5596   0036CA                     _I2C1_MasterEnableRestart:
  5597                           	callstack 116
  5598   0036CA                     
  5599                           ;mcc_generated_files/i2c1_master.c: 698:     I2C1CON0bits.RSEN = 1;
  5600   0036CA  0102               	movlb	2	; () banked
  5601   0036CC  8D94               	bsf	148,6,b	;volatile
  5602   0036CE                     
  5603                           ; BSR set to: 2
  5604   0036CE  0012               	return		;funcret
  5605   0036D0                     __end_of_I2C1_MasterEnableRestart:
  5606                           	callstack 0
  5607                           
  5608 ;; *************** function _I2C1_MasterDisableRestart *****************
  5609 ;; Defined at:
  5610 ;;		line 701 in file "mcc_generated_files/i2c1_master.c"
  5611 ;; Parameters:    Size  Location     Type
  5612 ;;		None
  5613 ;; Auto vars:     Size  Location     Type
  5614 ;;		None
  5615 ;; Return value:  Size  Location     Type
  5616 ;;                  1    wreg      void 
  5617 ;; Registers used:
  5618 ;;		None
  5619 ;; Tracked objects:
  5620 ;;		On entry : 0/0
  5621 ;;		On exit  : 0/0
  5622 ;;		Unchanged: 0/0
  5623 ;; Data sizes:     COMRAM   BANK5   BANK6   BANK7   BANK8   BANK9  BANK10  BANK11  BANK12  BANK13  BANK14  BANK15  BANK1
      +6  BANK17  BANK18  BANK19  BANK20  BANK21  BANK22  BANK23  BANK24  BANK25  BANK26  BANK27  BANK28  BANK29  BANK30  BANK3
      +1  BANK32  BANK33  BANK34  BANK35  BANK36
  5624 ;;      Params:         0       0       0       0       0       0       0       0       0       0       0       0       
      +0       0       0       0       0       0       0       0       0       0       0       0       0       0       0       
      +0       0       0       0       0       0
  5625 ;;      Locals:         0       0       0       0       0       0       0       0       0       0       0       0       
      +0       0       0       0       0       0       0       0       0       0       0       0       0       0       0       
      +0       0       0       0       0       0
  5626 ;;      Temps:          0       0       0       0       0       0       0       0       0       0       0       0       
      +0       0       0       0       0       0       0       0       0       0       0       0       0       0       0       
      +0       0       0       0       0       0
  5627 ;;      Totals:         0       0       0       0       0       0       0       0       0       0       0       0       
      +0       0       0       0       0       0       0       0       0       0       0       0       0       0       0       
      +0       0       0       0       0       0
  5628 ;;Total ram usage:        0 bytes
  5629 ;; Hardware stack levels used: 1
  5630 ;; This function calls:
  5631 ;;		Nothing
  5632 ;; This function is called by:
  5633 ;;		_I2C1_DO_TX_EMPTY
  5634 ;;		_I2C1_DO_RX_EMPTY
  5635 ;; This function uses a non-reentrant model
  5636 ;;
  5637                           
  5638                           	psect	text61
  5639   0036D0                     __ptext61:
  5640                           	callstack 0
  5641   0036D0                     _I2C1_MasterDisableRestart:
  5642                           	callstack 116
  5643   0036D0                     
  5644                           ;mcc_generated_files/i2c1_master.c: 704:     I2C1CON0bits.RSEN = 0;
  5645   0036D0  0102               	movlb	2	; () banked
  5646   0036D2  9D94               	bcf	148,6,b	;volatile
  5647   0036D4                     
  5648                           ; BSR set to: 2
  5649   0036D4  0012               	return		;funcret
  5650   0036D6                     __end_of_I2C1_MasterDisableRestart:
  5651                           	callstack 0
  5652                           
  5653 ;; *************** function _I2C1_MasterResetBus *****************
  5654 ;; Defined at:
  5655 ;;		line 685 in file "mcc_generated_files/i2c1_master.c"
  5656 ;; Parameters:    Size  Location     Type
  5657 ;;		None
  5658 ;; Auto vars:     Size  Location     Type
  5659 ;;		None
  5660 ;; Return value:  Size  Location     Type
  5661 ;;                  1    wreg      void 
  5662 ;; Registers used:
  5663 ;;		None
  5664 ;; Tracked objects:
  5665 ;;		On entry : 0/0
  5666 ;;		On exit  : 0/0
  5667 ;;		Unchanged: 0/0
  5668 ;; Data sizes:     COMRAM   BANK5   BANK6   BANK7   BANK8   BANK9  BANK10  BANK11  BANK12  BANK13  BANK14  BANK15  BANK1
      +6  BANK17  BANK18  BANK19  BANK20  BANK21  BANK22  BANK23  BANK24  BANK25  BANK26  BANK27  BANK28  BANK29  BANK30  BANK3
      +1  BANK32  BANK33  BANK34  BANK35  BANK36
  5669 ;;      Params:         0       0       0       0       0       0       0       0       0       0       0       0       
      +0       0       0       0       0       0       0       0       0       0       0       0       0       0       0       
      +0       0       0       0       0       0
  5670 ;;      Locals:         0       0       0       0       0       0       0       0       0       0       0       0       
      +0       0       0       0       0       0       0       0       0       0       0       0       0       0       0       
      +0       0       0       0       0       0
  5671 ;;      Temps:          0       0       0       0       0       0       0       0       0       0       0       0       
      +0       0       0       0       0       0       0       0       0       0       0       0       0       0       0       
      +0       0       0       0       0       0
  5672 ;;      Totals:         0       0       0       0       0       0       0       0       0       0       0       0       
      +0       0       0       0       0       0       0       0       0       0       0       0       0       0       0       
      +0       0       0       0       0       0
  5673 ;;Total ram usage:        0 bytes
  5674 ;; Hardware stack levels used: 1
  5675 ;; This function calls:
  5676 ;;		Nothing
  5677 ;; This function is called by:
  5678 ;;		_I2C1_DO_RESET
  5679 ;;		_I2C1_DO_BUS_ERROR
  5680 ;; This function uses a non-reentrant model
  5681 ;;
  5682                           
  5683                           	psect	text62
  5684   00366A                     __ptext62:
  5685                           	callstack 0
  5686   00366A                     _I2C1_MasterResetBus:
  5687                           	callstack 116
  5688   00366A                     
  5689                           ;mcc_generated_files/i2c1_master.c: 688:     I2C1CON0bits.EN = 0;
  5690   00366A  0102               	movlb	2	; () banked
  5691   00366C  9F94               	bcf	148,7,b	;volatile
  5692                           
  5693                           ;mcc_generated_files/i2c1_master.c: 690:     I2C1STAT1bits.CLRBF = 1;
  5694   00366E  8599               	bsf	153,2,b	;volatile
  5695                           
  5696                           ;mcc_generated_files/i2c1_master.c: 692:     I2C1CON0bits.EN = 1;
  5697   003670  8F94               	bsf	148,7,b	;volatile
  5698   003672                     
  5699                           ; BSR set to: 2
  5700   003672  0012               	return		;funcret
  5701   003674                     __end_of_I2C1_MasterResetBus:
  5702                           	callstack 0
  5703                           
  5704 ;; *************** function _I2C1_CallbackReturnReset *****************
  5705 ;; Defined at:
  5706 ;;		line 614 in file "mcc_generated_files/i2c1_master.c"
  5707 ;; Parameters:    Size  Location     Type
  5708 ;;  funPtr          2   11[COMRAM] PTR void 
  5709 ;;		 -> I2C1_ReadDataBlock@bufferBlock(4), I2C1_Write2ByteRegister@data(2), I2C1_Write1ByteRegister@data(1), I2C1_Write@
      +data(1), 
  5710 ;;		 -> I2C1_Read2ByteRegister@returnValue(2), NULL(0), I2C1_Read1ByteRegister@returnValue(1), 
  5711 ;; Auto vars:     Size  Location     Type
  5712 ;;		None
  5713 ;; Return value:  Size  Location     Type
  5714 ;;                  1    wreg      enum E363
  5715 ;; Registers used:
  5716 ;;		wreg
  5717 ;; Tracked objects:
  5718 ;;		On entry : 0/0
  5719 ;;		On exit  : 0/0
  5720 ;;		Unchanged: 0/0
  5721 ;; Data sizes:     COMRAM   BANK5   BANK6   BANK7   BANK8   BANK9  BANK10  BANK11  BANK12  BANK13  BANK14  BANK15  BANK1
      +6  BANK17  BANK18  BANK19  BANK20  BANK21  BANK22  BANK23  BANK24  BANK25  BANK26  BANK27  BANK28  BANK29  BANK30  BANK3
      +1  BANK32  BANK33  BANK34  BANK35  BANK36
  5722 ;;      Params:         2       0       0       0       0       0       0       0       0       0       0       0       
      +0       0       0       0       0       0       0       0       0       0       0       0       0       0       0       
      +0       0       0       0       0       0
  5723 ;;      Locals:         0       0       0       0       0       0       0       0       0       0       0       0       
      +0       0       0       0       0       0       0       0       0       0       0       0       0       0       0       
      +0       0       0       0       0       0
  5724 ;;      Temps:          0       0       0       0       0       0       0       0       0       0       0       0       
      +0       0       0       0       0       0       0       0       0       0       0       0       0       0       0       
      +0       0       0       0       0       0
  5725 ;;      Totals:         2       0       0       0       0       0       0       0       0       0       0       0       
      +0       0       0       0       0       0       0       0       0       0       0       0       0       0       0       
      +0       0       0       0       0       0
  5726 ;;Total ram usage:        2 bytes
  5727 ;; Hardware stack levels used: 1
  5728 ;; This function calls:
  5729 ;;		Nothing
  5730 ;; This function is called by:
  5731 ;;		_I2C1_Open
  5732 ;;		_I2C1_DO_RX_EMPTY
  5733 ;;		_I2C1_DO_TX_EMPTY
  5734 ;;		_I2C1_DO_TX
  5735 ;;		_I2C1_DO_ADDRESS_NACK
  5736 ;;		_I2C1_DO_BUS_COLLISION
  5737 ;; This function uses a non-reentrant model
  5738 ;;
  5739                           
  5740                           	psect	text63
  5741   0036F0                     __ptext63:
  5742                           	callstack 0
  5743   0036F0                     _I2C1_CallbackReturnReset:
  5744                           	callstack 116
  5745   0036F0                     
  5746                           ;mcc_generated_files/i2c1_master.c: 614: i2c1_operations_t I2C1_CallbackReturnReset(void
      +                           *funPtr);mcc_generated_files/i2c1_master.c: 615: {;mcc_generated_files/i2c1_master.c: 6
      +                          16:     return I2C1_RESET_LINK;
  5747   0036F0  0E05               	movlw	5
  5748   0036F2  0012               	return		;funcret
  5749   0036F4                     __end_of_I2C1_CallbackReturnReset:
  5750                           	callstack 0
  5751                           
  5752 ;; *************** function _I2C1_CallbackReturnStop *****************
  5753 ;; Defined at:
  5754 ;;		line 609 in file "mcc_generated_files/i2c1_master.c"
  5755 ;; Parameters:    Size  Location     Type
  5756 ;;  funPtr          2   11[COMRAM] PTR void 
  5757 ;;		 -> I2C1_ReadDataBlock@bufferBlock(4), I2C1_Write2ByteRegister@data(2), I2C1_Write1ByteRegister@data(1), I2C1_Write@
      +data(1), 
  5758 ;;		 -> I2C1_Read2ByteRegister@returnValue(2), NULL(0), I2C1_Read1ByteRegister@returnValue(1), 
  5759 ;; Auto vars:     Size  Location     Type
  5760 ;;		None
  5761 ;; Return value:  Size  Location     Type
  5762 ;;                  1    wreg      enum E363
  5763 ;; Registers used:
  5764 ;;		wreg
  5765 ;; Tracked objects:
  5766 ;;		On entry : 0/0
  5767 ;;		On exit  : 0/0
  5768 ;;		Unchanged: 0/0
  5769 ;; Data sizes:     COMRAM   BANK5   BANK6   BANK7   BANK8   BANK9  BANK10  BANK11  BANK12  BANK13  BANK14  BANK15  BANK1
      +6  BANK17  BANK18  BANK19  BANK20  BANK21  BANK22  BANK23  BANK24  BANK25  BANK26  BANK27  BANK28  BANK29  BANK30  BANK3
      +1  BANK32  BANK33  BANK34  BANK35  BANK36
  5770 ;;      Params:         2       0       0       0       0       0       0       0       0       0       0       0       
      +0       0       0       0       0       0       0       0       0       0       0       0       0       0       0       
      +0       0       0       0       0       0
  5771 ;;      Locals:         0       0       0       0       0       0       0       0       0       0       0       0       
      +0       0       0       0       0       0       0       0       0       0       0       0       0       0       0       
      +0       0       0       0       0       0
  5772 ;;      Temps:          0       0       0       0       0       0       0       0       0       0       0       0       
      +0       0       0       0       0       0       0       0       0       0       0       0       0       0       0       
      +0       0       0       0       0       0
  5773 ;;      Totals:         2       0       0       0       0       0       0       0       0       0       0       0       
      +0       0       0       0       0       0       0       0       0       0       0       0       0       0       0       
      +0       0       0       0       0       0
  5774 ;;Total ram usage:        2 bytes
  5775 ;; Hardware stack levels used: 1
  5776 ;; This function calls:
  5777 ;;		Nothing
  5778 ;; This function is called by:
  5779 ;;		_I2C1_Open
  5780 ;;		_I2C1_SetCallback
  5781 ;;		_I2C1_DO_RX_EMPTY
  5782 ;;		_I2C1_DO_TX_EMPTY
  5783 ;;		_I2C1_DO_TX
  5784 ;;		_I2C1_DO_ADDRESS_NACK
  5785 ;;		_I2C1_DO_BUS_COLLISION
  5786 ;; This function uses a non-reentrant model
  5787 ;;
  5788                           
  5789                           	psect	text64
  5790   0036F4                     __ptext64:
  5791                           	callstack 0
  5792   0036F4                     _I2C1_CallbackReturnStop:
  5793                           	callstack 116
  5794   0036F4                     
  5795                           ;mcc_generated_files/i2c1_master.c: 609: i2c1_operations_t I2C1_CallbackReturnStop(void 
      +                          *funPtr);mcc_generated_files/i2c1_master.c: 610: {;mcc_generated_files/i2c1_master.c: 61
      +                          1:     return I2C1_STOP;
  5796   0036F4  0E01               	movlw	1
  5797   0036F6  0012               	return		;funcret
  5798   0036F8                     __end_of_I2C1_CallbackReturnStop:
  5799                           	callstack 0
  5800                           
  5801 ;; *************** function _rdBlkRegCompleteHandler *****************
  5802 ;; Defined at:
  5803 ;;		line 184 in file "mcc_generated_files/examples/i2c1_master_example.c"
  5804 ;; Parameters:    Size  Location     Type
  5805 ;;  ptr             2   11[COMRAM] PTR void 
  5806 ;;		 -> I2C1_ReadDataBlock@bufferBlock(4), I2C1_Write2ByteRegister@data(2), I2C1_Write1ByteRegister@data(1), I2C1_Write@
      +data(1), 
  5807 ;;		 -> I2C1_Read2ByteRegister@returnValue(2), NULL(0), I2C1_Read1ByteRegister@returnValue(1), 
  5808 ;; Auto vars:     Size  Location     Type
  5809 ;;		None
  5810 ;; Return value:  Size  Location     Type
  5811 ;;                  1    wreg      enum E363
  5812 ;; Registers used:
  5813 ;;		wreg, fsr2l, fsr2h, status,2, status,0, prodl, prodh, cstack
  5814 ;; Tracked objects:
  5815 ;;		On entry : 0/0
  5816 ;;		On exit  : 0/0
  5817 ;;		Unchanged: 0/0
  5818 ;; Data sizes:     COMRAM   BANK5   BANK6   BANK7   BANK8   BANK9  BANK10  BANK11  BANK12  BANK13  BANK14  BANK15  BANK1
      +6  BANK17  BANK18  BANK19  BANK20  BANK21  BANK22  BANK23  BANK24  BANK25  BANK26  BANK27  BANK28  BANK29  BANK30  BANK3
      +1  BANK32  BANK33  BANK34  BANK35  BANK36
  5819 ;;      Params:         2       0       0       0       0       0       0       0       0       0       0       0       
      +0       0       0       0       0       0       0       0       0       0       0       0       0       0       0       
      +0       0       0       0       0       0
  5820 ;;      Locals:         0       0       0       0       0       0       0       0       0       0       0       0       
      +0       0       0       0       0       0       0       0       0       0       0       0       0       0       0       
      +0       0       0       0       0       0
  5821 ;;      Temps:          0       0       0       0       0       0       0       0       0       0       0       0       
      +0       0       0       0       0       0       0       0       0       0       0       0       0       0       0       
      +0       0       0       0       0       0
  5822 ;;      Totals:         2       0       0       0       0       0       0       0       0       0       0       0       
      +0       0       0       0       0       0       0       0       0       0       0       0       0       0       0       
      +0       0       0       0       0       0
  5823 ;;Total ram usage:        2 bytes
  5824 ;; Hardware stack levels used: 1
  5825 ;; Hardware stack levels required when called: 2
  5826 ;; This function calls:
  5827 ;;		_I2C1_SetBuffer
  5828 ;;		_I2C1_SetDataCompleteCallback
  5829 ;; This function is called by:
  5830 ;;		_I2C1_ReadDataBlock
  5831 ;;		_I2C1_DO_RX_EMPTY
  5832 ;;		_I2C1_DO_TX_EMPTY
  5833 ;;		_I2C1_DO_TX
  5834 ;;		_I2C1_DO_ADDRESS_NACK
  5835 ;;		_I2C1_DO_BUS_COLLISION
  5836 ;; This function uses a non-reentrant model
  5837 ;;
  5838                           
  5839                           	psect	text65
  5840   0031E2                     __ptext65:
  5841                           	callstack 0
  5842   0031E2                     _rdBlkRegCompleteHandler:
  5843                           	callstack 114
  5844   0031E2                     
  5845                           ;mcc_generated_files/examples/i2c1_master_example.c: 184: static i2c1_operations_t rdBlk
      +                          RegCompleteHandler(void *ptr);mcc_generated_files/examples/i2c1_master_example.c: 185: {
      +                          ;mcc_generated_files/examples/i2c1_master_example.c: 186:     I2C1_SetBuffer(((i2c1_buff
      +                          er_t *)ptr)->data,((i2c1_buffer_t*)ptr)->len);
  5846   0031E2  EE20 F002          	lfsr	2,2
  5847   0031E6  503D               	movf	rdBlkRegCompleteHandler@ptr^(0+1280),w,c
  5848   0031E8  26D9               	addwf	fsr2l,f,c
  5849   0031EA  503E               	movf	(rdBlkRegCompleteHandler@ptr+1)^(0+1280),w,c
  5850   0031EC  22DA               	addwfc	fsr2h,f,c
  5851   0031EE  C4DE F532          	movff	postinc2,I2C1_SetBuffer@buffer
  5852   0031F2  C4DD F533          	movff	postdec2,I2C1_SetBuffer@buffer+1
  5853   0031F6  C53D  F4D9         	movff	rdBlkRegCompleteHandler@ptr,fsr2l
  5854   0031FA  C53E  F4DA         	movff	rdBlkRegCompleteHandler@ptr+1,fsr2h
  5855   0031FE  C4DE F534          	movff	postinc2,I2C1_SetBuffer@bufferSize
  5856   003202  C4DD F535          	movff	postdec2,I2C1_SetBuffer@bufferSize+1
  5857   003206  EC2D  F01A         	call	_I2C1_SetBuffer	;wreg free
  5858   00320A                     
  5859                           ;mcc_generated_files/examples/i2c1_master_example.c: 187:     I2C1_SetDataCompleteCallba
      +                          ck(((void*)0),((void*)0));
  5860   00320A  0E00               	movlw	0
  5861   00320C  6E38               	movwf	I2C1_SetDataCompleteCallback@cb^(0+1280),c
  5862   00320E  0E00               	movlw	0
  5863   003210  6E39               	movwf	(I2C1_SetDataCompleteCallback@cb+1)^(0+1280),c
  5864   003212  0E00               	movlw	0
  5865   003214  6E3A               	movwf	(I2C1_SetDataCompleteCallback@cb+2)^(0+1280),c
  5866   003216  0E00               	movlw	0
  5867   003218  6E3B               	movwf	I2C1_SetDataCompleteCallback@ptr^(0+1280),c
  5868   00321A  0E00               	movlw	0
  5869   00321C  6E3C               	movwf	(I2C1_SetDataCompleteCallback@ptr+1)^(0+1280),c
  5870   00321E  EC68  F01A         	call	_I2C1_SetDataCompleteCallback	;wreg free
  5871   003222                     
  5872                           ;mcc_generated_files/examples/i2c1_master_example.c: 188:     return I2C1_RESTART_READ;
  5873   003222  0E02               	movlw	2
  5874   003224  0012               	return		;funcret
  5875   003226                     __end_of_rdBlkRegCompleteHandler:
  5876                           	callstack 0
  5877                           
  5878 ;; *************** function _wr1RegCompleteHandler *****************
  5879 ;; Defined at:
  5880 ;;		line 170 in file "mcc_generated_files/examples/i2c1_master_example.c"
  5881 ;; Parameters:    Size  Location     Type
  5882 ;;  ptr             2   11[COMRAM] PTR void 
  5883 ;;		 -> I2C1_ReadDataBlock@bufferBlock(4), I2C1_Write2ByteRegister@data(2), I2C1_Write1ByteRegister@data(1), I2C1_Write@
      +data(1), 
  5884 ;;		 -> I2C1_Read2ByteRegister@returnValue(2), NULL(0), I2C1_Read1ByteRegister@returnValue(1), 
  5885 ;; Auto vars:     Size  Location     Type
  5886 ;;		None
  5887 ;; Return value:  Size  Location     Type
  5888 ;;                  1    wreg      enum E363
  5889 ;; Registers used:
  5890 ;;		wreg, fsr2l, fsr2h, status,2, status,0, prodl, prodh, cstack
  5891 ;; Tracked objects:
  5892 ;;		On entry : 0/0
  5893 ;;		On exit  : 0/0
  5894 ;;		Unchanged: 0/0
  5895 ;; Data sizes:     COMRAM   BANK5   BANK6   BANK7   BANK8   BANK9  BANK10  BANK11  BANK12  BANK13  BANK14  BANK15  BANK1
      +6  BANK17  BANK18  BANK19  BANK20  BANK21  BANK22  BANK23  BANK24  BANK25  BANK26  BANK27  BANK28  BANK29  BANK30  BANK3
      +1  BANK32  BANK33  BANK34  BANK35  BANK36
  5896 ;;      Params:         2       0       0       0       0       0       0       0       0       0       0       0       
      +0       0       0       0       0       0       0       0       0       0       0       0       0       0       0       
      +0       0       0       0       0       0
  5897 ;;      Locals:         0       0       0       0       0       0       0       0       0       0       0       0       
      +0       0       0       0       0       0       0       0       0       0       0       0       0       0       0       
      +0       0       0       0       0       0
  5898 ;;      Temps:          0       0       0       0       0       0       0       0       0       0       0       0       
      +0       0       0       0       0       0       0       0       0       0       0       0       0       0       0       
      +0       0       0       0       0       0
  5899 ;;      Totals:         2       0       0       0       0       0       0       0       0       0       0       0       
      +0       0       0       0       0       0       0       0       0       0       0       0       0       0       0       
      +0       0       0       0       0       0
  5900 ;;Total ram usage:        2 bytes
  5901 ;; Hardware stack levels used: 1
  5902 ;; Hardware stack levels required when called: 2
  5903 ;; This function calls:
  5904 ;;		_I2C1_SetBuffer
  5905 ;;		_I2C1_SetDataCompleteCallback
  5906 ;; This function is called by:
  5907 ;;		_I2C1_Write
  5908 ;;		_I2C1_Write1ByteRegister
  5909 ;;		_I2C1_DO_RX_EMPTY
  5910 ;;		_I2C1_DO_TX_EMPTY
  5911 ;;		_I2C1_DO_TX
  5912 ;;		_I2C1_DO_ADDRESS_NACK
  5913 ;;		_I2C1_DO_BUS_COLLISION
  5914 ;; This function uses a non-reentrant model
  5915 ;;
  5916                           
  5917                           	psect	text66
  5918   00325C                     __ptext66:
  5919                           	callstack 0
  5920   00325C                     _wr1RegCompleteHandler:
  5921                           	callstack 114
  5922   00325C                     
  5923                           ;mcc_generated_files/examples/i2c1_master_example.c: 170: static i2c1_operations_t wr1Re
      +                          gCompleteHandler(void *ptr);mcc_generated_files/examples/i2c1_master_example.c: 171: {;m
      +                          cc_generated_files/examples/i2c1_master_example.c: 172:     I2C1_SetBuffer(ptr,1);
  5924   00325C  C53D  F532         	movff	wr1RegCompleteHandler@ptr,I2C1_SetBuffer@buffer
  5925   003260  C53E  F533         	movff	wr1RegCompleteHandler@ptr+1,I2C1_SetBuffer@buffer+1
  5926   003264  0E00               	movlw	0
  5927   003266  6E35               	movwf	(I2C1_SetBuffer@bufferSize+1)^(0+1280),c
  5928   003268  0E01               	movlw	1
  5929   00326A  6E34               	movwf	I2C1_SetBuffer@bufferSize^(0+1280),c
  5930   00326C  EC2D  F01A         	call	_I2C1_SetBuffer	;wreg free
  5931   003270                     
  5932                           ;mcc_generated_files/examples/i2c1_master_example.c: 173:     I2C1_SetDataCompleteCallba
      +                          ck(((void*)0),((void*)0));
  5933   003270  0E00               	movlw	0
  5934   003272  6E38               	movwf	I2C1_SetDataCompleteCallback@cb^(0+1280),c
  5935   003274  0E00               	movlw	0
  5936   003276  6E39               	movwf	(I2C1_SetDataCompleteCallback@cb+1)^(0+1280),c
  5937   003278  0E00               	movlw	0
  5938   00327A  6E3A               	movwf	(I2C1_SetDataCompleteCallback@cb+2)^(0+1280),c
  5939   00327C  0E00               	movlw	0
  5940   00327E  6E3B               	movwf	I2C1_SetDataCompleteCallback@ptr^(0+1280),c
  5941   003280  0E00               	movlw	0
  5942   003282  6E3C               	movwf	(I2C1_SetDataCompleteCallback@ptr+1)^(0+1280),c
  5943   003284  EC68  F01A         	call	_I2C1_SetDataCompleteCallback	;wreg free
  5944   003288                     
  5945                           ;mcc_generated_files/examples/i2c1_master_example.c: 174:     return I2C1_CONTINUE;
  5946   003288  0E04               	movlw	4
  5947   00328A  0012               	return		;funcret
  5948   00328C                     __end_of_wr1RegCompleteHandler:
  5949                           	callstack 0
  5950                           
  5951 ;; *************** function _rd2RegCompleteHandler *****************
  5952 ;; Defined at:
  5953 ;;		line 163 in file "mcc_generated_files/examples/i2c1_master_example.c"
  5954 ;; Parameters:    Size  Location     Type
  5955 ;;  ptr             2   11[COMRAM] PTR void 
  5956 ;;		 -> I2C1_ReadDataBlock@bufferBlock(4), I2C1_Write2ByteRegister@data(2), I2C1_Write1ByteRegister@data(1), I2C1_Write@
      +data(1), 
  5957 ;;		 -> I2C1_Read2ByteRegister@returnValue(2), NULL(0), I2C1_Read1ByteRegister@returnValue(1), 
  5958 ;; Auto vars:     Size  Location     Type
  5959 ;;		None
  5960 ;; Return value:  Size  Location     Type
  5961 ;;                  1    wreg      enum E363
  5962 ;; Registers used:
  5963 ;;		wreg, fsr2l, fsr2h, status,2, status,0, prodl, prodh, cstack
  5964 ;; Tracked objects:
  5965 ;;		On entry : 0/0
  5966 ;;		On exit  : 0/0
  5967 ;;		Unchanged: 0/0
  5968 ;; Data sizes:     COMRAM   BANK5   BANK6   BANK7   BANK8   BANK9  BANK10  BANK11  BANK12  BANK13  BANK14  BANK15  BANK1
      +6  BANK17  BANK18  BANK19  BANK20  BANK21  BANK22  BANK23  BANK24  BANK25  BANK26  BANK27  BANK28  BANK29  BANK30  BANK3
      +1  BANK32  BANK33  BANK34  BANK35  BANK36
  5969 ;;      Params:         2       0       0       0       0       0       0       0       0       0       0       0       
      +0       0       0       0       0       0       0       0       0       0       0       0       0       0       0       
      +0       0       0       0       0       0
  5970 ;;      Locals:         0       0       0       0       0       0       0       0       0       0       0       0       
      +0       0       0       0       0       0       0       0       0       0       0       0       0       0       0       
      +0       0       0       0       0       0
  5971 ;;      Temps:          0       0       0       0       0       0       0       0       0       0       0       0       
      +0       0       0       0       0       0       0       0       0       0       0       0       0       0       0       
      +0       0       0       0       0       0
  5972 ;;      Totals:         2       0       0       0       0       0       0       0       0       0       0       0       
      +0       0       0       0       0       0       0       0       0       0       0       0       0       0       0       
      +0       0       0       0       0       0
  5973 ;;Total ram usage:        2 bytes
  5974 ;; Hardware stack levels used: 1
  5975 ;; Hardware stack levels required when called: 2
  5976 ;; This function calls:
  5977 ;;		_I2C1_SetBuffer
  5978 ;;		_I2C1_SetDataCompleteCallback
  5979 ;; This function is called by:
  5980 ;;		_I2C1_Read2ByteRegister
  5981 ;;		_I2C1_DO_RX_EMPTY
  5982 ;;		_I2C1_DO_TX_EMPTY
  5983 ;;		_I2C1_DO_TX
  5984 ;;		_I2C1_DO_ADDRESS_NACK
  5985 ;;		_I2C1_DO_BUS_COLLISION
  5986 ;; This function uses a non-reentrant model
  5987 ;;
  5988                           
  5989                           	psect	text67
  5990   00328C                     __ptext67:
  5991                           	callstack 0
  5992   00328C                     _rd2RegCompleteHandler:
  5993                           	callstack 114
  5994   00328C                     
  5995                           ;mcc_generated_files/examples/i2c1_master_example.c: 163: static i2c1_operations_t rd2Re
      +                          gCompleteHandler(void *ptr);mcc_generated_files/examples/i2c1_master_example.c: 164: {;m
      +                          cc_generated_files/examples/i2c1_master_example.c: 165:     I2C1_SetBuffer(ptr,2);
  5996   00328C  C53D  F532         	movff	rd2RegCompleteHandler@ptr,I2C1_SetBuffer@buffer
  5997   003290  C53E  F533         	movff	rd2RegCompleteHandler@ptr+1,I2C1_SetBuffer@buffer+1
  5998   003294  0E00               	movlw	0
  5999   003296  6E35               	movwf	(I2C1_SetBuffer@bufferSize+1)^(0+1280),c
  6000   003298  0E02               	movlw	2
  6001   00329A  6E34               	movwf	I2C1_SetBuffer@bufferSize^(0+1280),c
  6002   00329C  EC2D  F01A         	call	_I2C1_SetBuffer	;wreg free
  6003   0032A0                     
  6004                           ;mcc_generated_files/examples/i2c1_master_example.c: 166:     I2C1_SetDataCompleteCallba
      +                          ck(((void*)0),((void*)0));
  6005   0032A0  0E00               	movlw	0
  6006   0032A2  6E38               	movwf	I2C1_SetDataCompleteCallback@cb^(0+1280),c
  6007   0032A4  0E00               	movlw	0
  6008   0032A6  6E39               	movwf	(I2C1_SetDataCompleteCallback@cb+1)^(0+1280),c
  6009   0032A8  0E00               	movlw	0
  6010   0032AA  6E3A               	movwf	(I2C1_SetDataCompleteCallback@cb+2)^(0+1280),c
  6011   0032AC  0E00               	movlw	0
  6012   0032AE  6E3B               	movwf	I2C1_SetDataCompleteCallback@ptr^(0+1280),c
  6013   0032B0  0E00               	movlw	0
  6014   0032B2  6E3C               	movwf	(I2C1_SetDataCompleteCallback@ptr+1)^(0+1280),c
  6015   0032B4  EC68  F01A         	call	_I2C1_SetDataCompleteCallback	;wreg free
  6016   0032B8                     
  6017                           ;mcc_generated_files/examples/i2c1_master_example.c: 167:     return I2C1_RESTART_READ;
  6018   0032B8  0E02               	movlw	2
  6019   0032BA  0012               	return		;funcret
  6020   0032BC                     __end_of_rd2RegCompleteHandler:
  6021                           	callstack 0
  6022                           
  6023 ;; *************** function _rd1RegCompleteHandler *****************
  6024 ;; Defined at:
  6025 ;;		line 156 in file "mcc_generated_files/examples/i2c1_master_example.c"
  6026 ;; Parameters:    Size  Location     Type
  6027 ;;  ptr             2   11[COMRAM] PTR void 
  6028 ;;		 -> I2C1_ReadDataBlock@bufferBlock(4), I2C1_Write2ByteRegister@data(2), I2C1_Write1ByteRegister@data(1), I2C1_Write@
      +data(1), 
  6029 ;;		 -> I2C1_Read2ByteRegister@returnValue(2), NULL(0), I2C1_Read1ByteRegister@returnValue(1), 
  6030 ;; Auto vars:     Size  Location     Type
  6031 ;;		None
  6032 ;; Return value:  Size  Location     Type
  6033 ;;                  1    wreg      enum E363
  6034 ;; Registers used:
  6035 ;;		wreg, fsr2l, fsr2h, status,2, status,0, prodl, prodh, cstack
  6036 ;; Tracked objects:
  6037 ;;		On entry : 0/0
  6038 ;;		On exit  : 0/0
  6039 ;;		Unchanged: 0/0
  6040 ;; Data sizes:     COMRAM   BANK5   BANK6   BANK7   BANK8   BANK9  BANK10  BANK11  BANK12  BANK13  BANK14  BANK15  BANK1
      +6  BANK17  BANK18  BANK19  BANK20  BANK21  BANK22  BANK23  BANK24  BANK25  BANK26  BANK27  BANK28  BANK29  BANK30  BANK3
      +1  BANK32  BANK33  BANK34  BANK35  BANK36
  6041 ;;      Params:         2       0       0       0       0       0       0       0       0       0       0       0       
      +0       0       0       0       0       0       0       0       0       0       0       0       0       0       0       
      +0       0       0       0       0       0
  6042 ;;      Locals:         0       0       0       0       0       0       0       0       0       0       0       0       
      +0       0       0       0       0       0       0       0       0       0       0       0       0       0       0       
      +0       0       0       0       0       0
  6043 ;;      Temps:          0       0       0       0       0       0       0       0       0       0       0       0       
      +0       0       0       0       0       0       0       0       0       0       0       0       0       0       0       
      +0       0       0       0       0       0
  6044 ;;      Totals:         2       0       0       0       0       0       0       0       0       0       0       0       
      +0       0       0       0       0       0       0       0       0       0       0       0       0       0       0       
      +0       0       0       0       0       0
  6045 ;;Total ram usage:        2 bytes
  6046 ;; Hardware stack levels used: 1
  6047 ;; Hardware stack levels required when called: 2
  6048 ;; This function calls:
  6049 ;;		_I2C1_SetBuffer
  6050 ;;		_I2C1_SetDataCompleteCallback
  6051 ;; This function is called by:
  6052 ;;		_I2C1_Read1ByteRegister
  6053 ;;		_I2C1_DO_RX_EMPTY
  6054 ;;		_I2C1_DO_TX_EMPTY
  6055 ;;		_I2C1_DO_TX
  6056 ;;		_I2C1_DO_ADDRESS_NACK
  6057 ;;		_I2C1_DO_BUS_COLLISION
  6058 ;; This function uses a non-reentrant model
  6059 ;;
  6060                           
  6061                           	psect	text68
  6062   0032BC                     __ptext68:
  6063                           	callstack 0
  6064   0032BC                     _rd1RegCompleteHandler:
  6065                           	callstack 114
  6066   0032BC                     
  6067                           ;mcc_generated_files/examples/i2c1_master_example.c: 156: static i2c1_operations_t rd1Re
      +                          gCompleteHandler(void *ptr);mcc_generated_files/examples/i2c1_master_example.c: 157: {;m
      +                          cc_generated_files/examples/i2c1_master_example.c: 158:     I2C1_SetBuffer(ptr,1);
  6068   0032BC  C53D  F532         	movff	rd1RegCompleteHandler@ptr,I2C1_SetBuffer@buffer
  6069   0032C0  C53E  F533         	movff	rd1RegCompleteHandler@ptr+1,I2C1_SetBuffer@buffer+1
  6070   0032C4  0E00               	movlw	0
  6071   0032C6  6E35               	movwf	(I2C1_SetBuffer@bufferSize+1)^(0+1280),c
  6072   0032C8  0E01               	movlw	1
  6073   0032CA  6E34               	movwf	I2C1_SetBuffer@bufferSize^(0+1280),c
  6074   0032CC  EC2D  F01A         	call	_I2C1_SetBuffer	;wreg free
  6075   0032D0                     
  6076                           ;mcc_generated_files/examples/i2c1_master_example.c: 159:     I2C1_SetDataCompleteCallba
      +                          ck(((void*)0),((void*)0));
  6077   0032D0  0E00               	movlw	0
  6078   0032D2  6E38               	movwf	I2C1_SetDataCompleteCallback@cb^(0+1280),c
  6079   0032D4  0E00               	movlw	0
  6080   0032D6  6E39               	movwf	(I2C1_SetDataCompleteCallback@cb+1)^(0+1280),c
  6081   0032D8  0E00               	movlw	0
  6082   0032DA  6E3A               	movwf	(I2C1_SetDataCompleteCallback@cb+2)^(0+1280),c
  6083   0032DC  0E00               	movlw	0
  6084   0032DE  6E3B               	movwf	I2C1_SetDataCompleteCallback@ptr^(0+1280),c
  6085   0032E0  0E00               	movlw	0
  6086   0032E2  6E3C               	movwf	(I2C1_SetDataCompleteCallback@ptr+1)^(0+1280),c
  6087   0032E4  EC68  F01A         	call	_I2C1_SetDataCompleteCallback	;wreg free
  6088   0032E8                     
  6089                           ;mcc_generated_files/examples/i2c1_master_example.c: 160:     return I2C1_RESTART_READ;
  6090   0032E8  0E02               	movlw	2
  6091   0032EA  0012               	return		;funcret
  6092   0032EC                     __end_of_rd1RegCompleteHandler:
  6093                           	callstack 0
  6094                           
  6095 ;; *************** function _wr2RegCompleteHandler *****************
  6096 ;; Defined at:
  6097 ;;		line 177 in file "mcc_generated_files/examples/i2c1_master_example.c"
  6098 ;; Parameters:    Size  Location     Type
  6099 ;;  ptr             2   11[COMRAM] PTR void 
  6100 ;;		 -> I2C1_ReadDataBlock@bufferBlock(4), I2C1_Write2ByteRegister@data(2), I2C1_Write1ByteRegister@data(1), I2C1_Write@
      +data(1), 
  6101 ;;		 -> I2C1_Read2ByteRegister@returnValue(2), NULL(0), I2C1_Read1ByteRegister@returnValue(1), 
  6102 ;; Auto vars:     Size  Location     Type
  6103 ;;		None
  6104 ;; Return value:  Size  Location     Type
  6105 ;;                  1    wreg      enum E363
  6106 ;; Registers used:
  6107 ;;		wreg, fsr2l, fsr2h, status,2, status,0, prodl, prodh, cstack
  6108 ;; Tracked objects:
  6109 ;;		On entry : 0/0
  6110 ;;		On exit  : 0/0
  6111 ;;		Unchanged: 0/0
  6112 ;; Data sizes:     COMRAM   BANK5   BANK6   BANK7   BANK8   BANK9  BANK10  BANK11  BANK12  BANK13  BANK14  BANK15  BANK1
      +6  BANK17  BANK18  BANK19  BANK20  BANK21  BANK22  BANK23  BANK24  BANK25  BANK26  BANK27  BANK28  BANK29  BANK30  BANK3
      +1  BANK32  BANK33  BANK34  BANK35  BANK36
  6113 ;;      Params:         2       0       0       0       0       0       0       0       0       0       0       0       
      +0       0       0       0       0       0       0       0       0       0       0       0       0       0       0       
      +0       0       0       0       0       0
  6114 ;;      Locals:         0       0       0       0       0       0       0       0       0       0       0       0       
      +0       0       0       0       0       0       0       0       0       0       0       0       0       0       0       
      +0       0       0       0       0       0
  6115 ;;      Temps:          0       0       0       0       0       0       0       0       0       0       0       0       
      +0       0       0       0       0       0       0       0       0       0       0       0       0       0       0       
      +0       0       0       0       0       0
  6116 ;;      Totals:         2       0       0       0       0       0       0       0       0       0       0       0       
      +0       0       0       0       0       0       0       0       0       0       0       0       0       0       0       
      +0       0       0       0       0       0
  6117 ;;Total ram usage:        2 bytes
  6118 ;; Hardware stack levels used: 1
  6119 ;; Hardware stack levels required when called: 2
  6120 ;; This function calls:
  6121 ;;		_I2C1_SetBuffer
  6122 ;;		_I2C1_SetDataCompleteCallback
  6123 ;; This function is called by:
  6124 ;;		_I2C1_Write2ByteRegister
  6125 ;;		_I2C1_DO_RX_EMPTY
  6126 ;;		_I2C1_DO_TX_EMPTY
  6127 ;;		_I2C1_DO_TX
  6128 ;;		_I2C1_DO_ADDRESS_NACK
  6129 ;;		_I2C1_DO_BUS_COLLISION
  6130 ;; This function uses a non-reentrant model
  6131 ;;
  6132                           
  6133                           	psect	text69
  6134   0032EC                     __ptext69:
  6135                           	callstack 0
  6136   0032EC                     _wr2RegCompleteHandler:
  6137                           	callstack 114
  6138   0032EC                     
  6139                           ;mcc_generated_files/examples/i2c1_master_example.c: 177: static i2c1_operations_t wr2Re
      +                          gCompleteHandler(void *ptr);mcc_generated_files/examples/i2c1_master_example.c: 178: {;m
      +                          cc_generated_files/examples/i2c1_master_example.c: 179:     I2C1_SetBuffer(ptr,2);
  6140   0032EC  C53D  F532         	movff	wr2RegCompleteHandler@ptr,I2C1_SetBuffer@buffer
  6141   0032F0  C53E  F533         	movff	wr2RegCompleteHandler@ptr+1,I2C1_SetBuffer@buffer+1
  6142   0032F4  0E00               	movlw	0
  6143   0032F6  6E35               	movwf	(I2C1_SetBuffer@bufferSize+1)^(0+1280),c
  6144   0032F8  0E02               	movlw	2
  6145   0032FA  6E34               	movwf	I2C1_SetBuffer@bufferSize^(0+1280),c
  6146   0032FC  EC2D  F01A         	call	_I2C1_SetBuffer	;wreg free
  6147   003300                     
  6148                           ;mcc_generated_files/examples/i2c1_master_example.c: 180:     I2C1_SetDataCompleteCallba
      +                          ck(((void*)0),((void*)0));
  6149   003300  0E00               	movlw	0
  6150   003302  6E38               	movwf	I2C1_SetDataCompleteCallback@cb^(0+1280),c
  6151   003304  0E00               	movlw	0
  6152   003306  6E39               	movwf	(I2C1_SetDataCompleteCallback@cb+1)^(0+1280),c
  6153   003308  0E00               	movlw	0
  6154   00330A  6E3A               	movwf	(I2C1_SetDataCompleteCallback@cb+2)^(0+1280),c
  6155   00330C  0E00               	movlw	0
  6156   00330E  6E3B               	movwf	I2C1_SetDataCompleteCallback@ptr^(0+1280),c
  6157   003310  0E00               	movlw	0
  6158   003312  6E3C               	movwf	(I2C1_SetDataCompleteCallback@ptr+1)^(0+1280),c
  6159   003314  EC68  F01A         	call	_I2C1_SetDataCompleteCallback	;wreg free
  6160   003318                     
  6161                           ;mcc_generated_files/examples/i2c1_master_example.c: 181:     return I2C1_CONTINUE;
  6162   003318  0E04               	movlw	4
  6163   00331A  0012               	return		;funcret
  6164   00331C                     __end_of_wr2RegCompleteHandler:
  6165                           	callstack 0
  6166                           
  6167 ;; *************** function _I2C1_SetDataCompleteCallback *****************
  6168 ;; Defined at:
  6169 ;;		line 303 in file "mcc_generated_files/i2c1_master.c"
  6170 ;; Parameters:    Size  Location     Type
  6171 ;;  cb              3    6[COMRAM] PTR FTN(PTR void ,)enum 
  6172 ;;		 -> NULL(1), rdBlkRegCompleteHandler(1), wr2RegCompleteHandler(1), wr1RegCompleteHandler(1), 
  6173 ;;		 -> rd2RegCompleteHandler(1), rd1RegCompleteHandler(1), 
  6174 ;;  ptr             2    9[COMRAM] PTR void 
  6175 ;;		 -> I2C1_ReadDataBlock@bufferBlock(4), I2C1_Write2ByteRegister@data(2), I2C1_Write1ByteRegister@data(1), I2C1_Write@
      +data(1), 
  6176 ;;		 -> I2C1_Read2ByteRegister@returnValue(2), NULL(0), I2C1_Read1ByteRegister@returnValue(1), 
  6177 ;; Auto vars:     Size  Location     Type
  6178 ;;		None
  6179 ;; Return value:  Size  Location     Type
  6180 ;;                  1    wreg      void 
  6181 ;; Registers used:
  6182 ;;		wreg, fsr2l, fsr2h, status,2, status,0, prodl, prodh, cstack
  6183 ;; Tracked objects:
  6184 ;;		On entry : 0/0
  6185 ;;		On exit  : 0/0
  6186 ;;		Unchanged: 0/0
  6187 ;; Data sizes:     COMRAM   BANK5   BANK6   BANK7   BANK8   BANK9  BANK10  BANK11  BANK12  BANK13  BANK14  BANK15  BANK1
      +6  BANK17  BANK18  BANK19  BANK20  BANK21  BANK22  BANK23  BANK24  BANK25  BANK26  BANK27  BANK28  BANK29  BANK30  BANK3
      +1  BANK32  BANK33  BANK34  BANK35  BANK36
  6188 ;;      Params:         5       0       0       0       0       0       0       0       0       0       0       0       
      +0       0       0       0       0       0       0       0       0       0       0       0       0       0       0       
      +0       0       0       0       0       0
  6189 ;;      Locals:         0       0       0       0       0       0       0       0       0       0       0       0       
      +0       0       0       0       0       0       0       0       0       0       0       0       0       0       0       
      +0       0       0       0       0       0
  6190 ;;      Temps:          0       0       0       0       0       0       0       0       0       0       0       0       
      +0       0       0       0       0       0       0       0       0       0       0       0       0       0       0       
      +0       0       0       0       0       0
  6191 ;;      Totals:         5       0       0       0       0       0       0       0       0       0       0       0       
      +0       0       0       0       0       0       0       0       0       0       0       0       0       0       0       
      +0       0       0       0       0       0
  6192 ;;Total ram usage:        5 bytes
  6193 ;; Hardware stack levels used: 1
  6194 ;; Hardware stack levels required when called: 1
  6195 ;; This function calls:
  6196 ;;		_I2C1_SetCallback
  6197 ;; This function is called by:
  6198 ;;		_I2C1_Write
  6199 ;;		_rd1RegCompleteHandler
  6200 ;;		_rd2RegCompleteHandler
  6201 ;;		_wr1RegCompleteHandler
  6202 ;;		_wr2RegCompleteHandler
  6203 ;;		_rdBlkRegCompleteHandler
  6204 ;;		_I2C1_Read1ByteRegister
  6205 ;;		_I2C1_Read2ByteRegister
  6206 ;;		_I2C1_Write1ByteRegister
  6207 ;;		_I2C1_Write2ByteRegister
  6208 ;;		_I2C1_ReadDataBlock
  6209 ;; This function uses a non-reentrant model
  6210 ;;
  6211                           
  6212                           	psect	text70
  6213   0034D0                     __ptext70:
  6214                           	callstack 0
  6215   0034D0                     _I2C1_SetDataCompleteCallback:
  6216                           	callstack 120
  6217   0034D0                     
  6218                           ;mcc_generated_files/i2c1_master.c: 303: void I2C1_SetDataCompleteCallback(i2c1_callback
      +                          _t cb, void *ptr);mcc_generated_files/i2c1_master.c: 304: {;mcc_generated_files/i2c1_mas
      +                          ter.c: 305:     I2C1_SetCallback(I2C1_DATA_COMPLETE, cb, ptr);
  6219   0034D0  C538  F532         	movff	I2C1_SetDataCompleteCallback@cb,I2C1_SetCallback@cb
  6220   0034D4  C539  F533         	movff	I2C1_SetDataCompleteCallback@cb+1,I2C1_SetCallback@cb+1
  6221   0034D8  C53A  F534         	movff	I2C1_SetDataCompleteCallback@cb+2,I2C1_SetCallback@cb+2
  6222   0034DC  C53B  F535         	movff	I2C1_SetDataCompleteCallback@ptr,I2C1_SetCallback@ptr
  6223   0034E0  C53C  F536         	movff	I2C1_SetDataCompleteCallback@ptr+1,I2C1_SetCallback@ptr+1
  6224   0034E4  0E00               	movlw	0
  6225   0034E6  EC5A  F016         	call	_I2C1_SetCallback
  6226   0034EA  0012               	return		;funcret
  6227   0034EC                     __end_of_I2C1_SetDataCompleteCallback:
  6228                           	callstack 0
  6229                           
  6230 ;; *************** function _I2C1_SetCallback *****************
  6231 ;; Defined at:
  6232 ;;		line 328 in file "mcc_generated_files/i2c1_master.c"
  6233 ;; Parameters:    Size  Location     Type
  6234 ;;  idx             1    wreg     enum E17516
  6235 ;;  cb              3    0[COMRAM] PTR FTN(PTR void ,)enum 
  6236 ;;		 -> NULL(1), rdBlkRegCompleteHandler(1), wr2RegCompleteHandler(1), wr1RegCompleteHandler(1), 
  6237 ;;		 -> rd2RegCompleteHandler(1), rd1RegCompleteHandler(1), 
  6238 ;;  ptr             2    3[COMRAM] PTR void 
  6239 ;;		 -> I2C1_ReadDataBlock@bufferBlock(4), I2C1_Write2ByteRegister@data(2), I2C1_Write1ByteRegister@data(1), I2C1_Write@
      +data(1), 
  6240 ;;		 -> I2C1_Read2ByteRegister@returnValue(2), NULL(0), I2C1_Read1ByteRegister@returnValue(1), 
  6241 ;; Auto vars:     Size  Location     Type
  6242 ;;  idx             1    5[COMRAM] enum E17516
  6243 ;; Return value:  Size  Location     Type
  6244 ;;                  1    wreg      void 
  6245 ;; Registers used:
  6246 ;;		wreg, fsr2l, fsr2h, status,2, status,0, prodl, prodh
  6247 ;; Tracked objects:
  6248 ;;		On entry : 0/0
  6249 ;;		On exit  : 0/0
  6250 ;;		Unchanged: 0/0
  6251 ;; Data sizes:     COMRAM   BANK5   BANK6   BANK7   BANK8   BANK9  BANK10  BANK11  BANK12  BANK13  BANK14  BANK15  BANK1
      +6  BANK17  BANK18  BANK19  BANK20  BANK21  BANK22  BANK23  BANK24  BANK25  BANK26  BANK27  BANK28  BANK29  BANK30  BANK3
      +1  BANK32  BANK33  BANK34  BANK35  BANK36
  6252 ;;      Params:         5       0       0       0       0       0       0       0       0       0       0       0       
      +0       0       0       0       0       0       0       0       0       0       0       0       0       0       0       
      +0       0       0       0       0       0
  6253 ;;      Locals:         1       0       0       0       0       0       0       0       0       0       0       0       
      +0       0       0       0       0       0       0       0       0       0       0       0       0       0       0       
      +0       0       0       0       0       0
  6254 ;;      Temps:          0       0       0       0       0       0       0       0       0       0       0       0       
      +0       0       0       0       0       0       0       0       0       0       0       0       0       0       0       
      +0       0       0       0       0       0
  6255 ;;      Totals:         6       0       0       0       0       0       0       0       0       0       0       0       
      +0       0       0       0       0       0       0       0       0       0       0       0       0       0       0       
      +0       0       0       0       0       0
  6256 ;;Total ram usage:        6 bytes
  6257 ;; Hardware stack levels used: 1
  6258 ;; This function calls:
  6259 ;;		Nothing
  6260 ;; This function is called by:
  6261 ;;		_I2C1_SetDataCompleteCallback
  6262 ;;		_I2C1_SetAddressNackCallback
  6263 ;;		_I2C1_SetWriteCollisionCallback
  6264 ;;		_I2C1_SetDataNackCallback
  6265 ;;		_I2C1_SetTimeoutCallback
  6266 ;; This function uses a non-reentrant model
  6267 ;;
  6268                           
  6269                           	psect	text71
  6270   002CB4                     __ptext71:
  6271                           	callstack 0
  6272   002CB4                     _I2C1_SetCallback:
  6273                           	callstack 120
  6274                           
  6275                           ;incstack = 0
  6276                           ;I2C1_SetCallback@idx stored from wreg
  6277   002CB4  6E37               	movwf	I2C1_SetCallback@idx^(0+1280),c
  6278   002CB6                     
  6279                           ;mcc_generated_files/i2c1_master.c: 328: static void I2C1_SetCallback(i2c1_callbackIndex
      +                          _t idx, i2c1_callback_t cb, void *ptr);mcc_generated_files/i2c1_master.c: 329: {;mcc_gen
      +                          erated_files/i2c1_master.c: 330:     if(cb)
  6280   002CB6  5032               	movf	I2C1_SetCallback@cb^(0+1280),w,c
  6281   002CB8  1033               	iorwf	(I2C1_SetCallback@cb+1)^(0+1280),w,c
  6282   002CBA  1034               	iorwf	(I2C1_SetCallback@cb+2)^(0+1280),w,c
  6283   002CBC  B4D8               	btfsc	status,2,c
  6284   002CBE  EF63  F016         	goto	u801
  6285   002CC2  EF65  F016         	goto	u800
  6286   002CC6                     u801:
  6287   002CC6  EF81  F016         	goto	l2989
  6288   002CCA                     u800:
  6289   002CCA                     
  6290                           ;mcc_generated_files/i2c1_master.c: 331:     {;mcc_generated_files/i2c1_master.c: 332:  
      +                                 I2C1_Status.callbackTable[idx] = cb;
  6291   002CCA  5037               	movf	I2C1_SetCallback@idx^(0+1280),w,c
  6292   002CCC  0D03               	mullw	3
  6293   002CCE  0E01               	movlw	low _I2C1_Status
  6294   002CD0  24F3               	addwf	243,w,c
  6295   002CD2  6ED9               	movwf	fsr2l,c
  6296   002CD4  0E05               	movlw	high _I2C1_Status
  6297   002CD6  20F4               	addwfc	prodh,w,c
  6298   002CD8  6EDA               	movwf	fsr2h,c
  6299   002CDA  C532  F4DE         	movff	I2C1_SetCallback@cb,postinc2
  6300   002CDE  C533  F4DE         	movff	I2C1_SetCallback@cb+1,postinc2
  6301   002CE2  C534  F4DE         	movff	I2C1_SetCallback@cb+2,postinc2
  6302                           
  6303                           ;mcc_generated_files/i2c1_master.c: 333:         I2C1_Status.callbackPayload[idx] = ptr;
  6304   002CE6  5037               	movf	I2C1_SetCallback@idx^(0+1280),w,c
  6305   002CE8  0D02               	mullw	2
  6306   002CEA  0E13               	movlw	low (_I2C1_Status+18)
  6307   002CEC  24F3               	addwf	243,w,c
  6308   002CEE  6ED9               	movwf	fsr2l,c
  6309   002CF0  0E05               	movlw	high (_I2C1_Status+18)
  6310   002CF2  20F4               	addwfc	prodh,w,c
  6311   002CF4  6EDA               	movwf	fsr2h,c
  6312   002CF6  C535  F4DE         	movff	I2C1_SetCallback@ptr,postinc2
  6313   002CFA  C536  F4DD         	movff	I2C1_SetCallback@ptr+1,postdec2
  6314                           
  6315                           ;mcc_generated_files/i2c1_master.c: 334:     }
  6316   002CFE  EF99  F016         	goto	l580
  6317   002D02                     l2989:
  6318                           
  6319                           ;mcc_generated_files/i2c1_master.c: 336:     {;mcc_generated_files/i2c1_master.c: 337:  
      +                                 I2C1_Status.callbackTable[idx] = I2C1_CallbackReturnStop;
  6320   002D02  5037               	movf	I2C1_SetCallback@idx^(0+1280),w,c
  6321   002D04  0D03               	mullw	3
  6322   002D06  0E01               	movlw	low _I2C1_Status
  6323   002D08  24F3               	addwf	243,w,c
  6324   002D0A  6ED9               	movwf	fsr2l,c
  6325   002D0C  0E05               	movlw	high _I2C1_Status
  6326   002D0E  20F4               	addwfc	prodh,w,c
  6327   002D10  6EDA               	movwf	fsr2h,c
  6328   002D12  0EF4               	movlw	low _I2C1_CallbackReturnStop
  6329   002D14  6EDE               	movwf	postinc2,c
  6330   002D16  0E36               	movlw	high _I2C1_CallbackReturnStop
  6331   002D18  6EDE               	movwf	postinc2,c
  6332   002D1A  0E00               	movlw	low (_I2C1_CallbackReturnStop shr (0+16))
  6333   002D1C  6EDE               	movwf	postinc2,c
  6334                           
  6335                           ;mcc_generated_files/i2c1_master.c: 338:         I2C1_Status.callbackPayload[idx] = ((vo
      +                          id*)0);
  6336   002D1E  5037               	movf	I2C1_SetCallback@idx^(0+1280),w,c
  6337   002D20  0D02               	mullw	2
  6338   002D22  0E13               	movlw	low (_I2C1_Status+18)
  6339   002D24  24F3               	addwf	243,w,c
  6340   002D26  6ED9               	movwf	fsr2l,c
  6341   002D28  0E05               	movlw	high (_I2C1_Status+18)
  6342   002D2A  20F4               	addwfc	prodh,w,c
  6343   002D2C  6EDA               	movwf	fsr2h,c
  6344   002D2E  6ADE               	clrf	postinc2,c
  6345   002D30  6ADD               	clrf	postdec2,c
  6346   002D32                     l580:
  6347   002D32  0012               	return		;funcret
  6348   002D34                     __end_of_I2C1_SetCallback:
  6349                           	callstack 0
  6350                           
  6351 ;; *************** function _I2C1_SetBuffer *****************
  6352 ;; Defined at:
  6353 ;;		line 293 in file "mcc_generated_files/i2c1_master.c"
  6354 ;; Parameters:    Size  Location     Type
  6355 ;;  buffer          2    0[COMRAM] PTR void 
  6356 ;;		 -> I2C1_Read1ByteRegister@returnValue.data(3), I2C1_Read2ByteRegister@returnValue.data(3), I2C1_Write@data.data(3),
      + I2C1_Write1ByteRegister@data.data(3), 
  6357 ;;		 -> I2C1_Write2ByteRegister@data.data(3), I2C1_ReadDataBlock@reg(1), I2C1_ReadDataBlock@bufferBlock(4), bufferBlock.
      +data(3), 
  6358 ;;		 -> I2C1_Write2ByteRegister@reg(1), I2C1_Write2ByteRegister@data(2), I2C1_Write1ByteRegister@reg(1), I2C1_Write1Byte
      +Register@data(1), 
  6359 ;;		 -> I2C1_Write@data(1), I2C1_Read2ByteRegister@reg(1), I2C1_Read2ByteRegister@returnValue(2), NULL(0), 
  6360 ;;		 -> I2C1_Read1ByteRegister@reg(1), I2C1_Read1ByteRegister@returnValue(1), 
  6361 ;;  bufferSize      2    2[COMRAM] unsigned int 
  6362 ;; Auto vars:     Size  Location     Type
  6363 ;;		None
  6364 ;; Return value:  Size  Location     Type
  6365 ;;                  1    wreg      void 
  6366 ;; Registers used:
  6367 ;;		wreg, status,2, status,0
  6368 ;; Tracked objects:
  6369 ;;		On entry : 0/0
  6370 ;;		On exit  : 0/0
  6371 ;;		Unchanged: 0/0
  6372 ;; Data sizes:     COMRAM   BANK5   BANK6   BANK7   BANK8   BANK9  BANK10  BANK11  BANK12  BANK13  BANK14  BANK15  BANK1
      +6  BANK17  BANK18  BANK19  BANK20  BANK21  BANK22  BANK23  BANK24  BANK25  BANK26  BANK27  BANK28  BANK29  BANK30  BANK3
      +1  BANK32  BANK33  BANK34  BANK35  BANK36
  6373 ;;      Params:         4       0       0       0       0       0       0       0       0       0       0       0       
      +0       0       0       0       0       0       0       0       0       0       0       0       0       0       0       
      +0       0       0       0       0       0
  6374 ;;      Locals:         0       0       0       0       0       0       0       0       0       0       0       0       
      +0       0       0       0       0       0       0       0       0       0       0       0       0       0       0       
      +0       0       0       0       0       0
  6375 ;;      Temps:          0       0       0       0       0       0       0       0       0       0       0       0       
      +0       0       0       0       0       0       0       0       0       0       0       0       0       0       0       
      +0       0       0       0       0       0
  6376 ;;      Totals:         4       0       0       0       0       0       0       0       0       0       0       0       
      +0       0       0       0       0       0       0       0       0       0       0       0       0       0       0       
      +0       0       0       0       0       0
  6377 ;;Total ram usage:        4 bytes
  6378 ;; Hardware stack levels used: 1
  6379 ;; This function calls:
  6380 ;;		Nothing
  6381 ;; This function is called by:
  6382 ;;		_I2C1_Write
  6383 ;;		_rd1RegCompleteHandler
  6384 ;;		_rd2RegCompleteHandler
  6385 ;;		_wr1RegCompleteHandler
  6386 ;;		_wr2RegCompleteHandler
  6387 ;;		_rdBlkRegCompleteHandler
  6388 ;;		_I2C1_Read1ByteRegister
  6389 ;;		_I2C1_Read2ByteRegister
  6390 ;;		_I2C1_Write1ByteRegister
  6391 ;;		_I2C1_Write2ByteRegister
  6392 ;;		_I2C1_WriteNBytes
  6393 ;;		_I2C1_ReadNBytes
  6394 ;;		_I2C1_ReadDataBlock
  6395 ;; This function uses a non-reentrant model
  6396 ;;
  6397                           
  6398                           	psect	text72
  6399   00345A                     __ptext72:
  6400                           	callstack 0
  6401   00345A                     _I2C1_SetBuffer:
  6402                           	callstack 121
  6403   00345A                     
  6404                           ;mcc_generated_files/i2c1_master.c: 293: void I2C1_SetBuffer(void *buffer, size_t buffer
      +                          Size);mcc_generated_files/i2c1_master.c: 294: {;mcc_generated_files/i2c1_master.c: 295: 
      +                              if(I2C1_Status.bufferFree)
  6405   00345A  A82A               	btfss	(_I2C1_Status+41)^(0+1280),4,c
  6406   00345C  EF32  F01A         	goto	u811
  6407   003460  EF34  F01A         	goto	u810
  6408   003464                     u811:
  6409   003464  EF3D  F01A         	goto	l560
  6410   003468                     u810:
  6411   003468                     
  6412                           ;mcc_generated_files/i2c1_master.c: 296:     {;mcc_generated_files/i2c1_master.c: 297:  
      +                                 I2C1_Status.data_ptr = buffer;
  6413   003468  C532  F524         	movff	I2C1_SetBuffer@buffer,_I2C1_Status+35
  6414   00346C  C533  F525         	movff	I2C1_SetBuffer@buffer+1,_I2C1_Status+36
  6415   003470                     
  6416                           ;mcc_generated_files/i2c1_master.c: 298:         I2C1_Status.data_length = bufferSize;
  6417   003470  C534  F526         	movff	I2C1_SetBuffer@bufferSize,_I2C1_Status+37
  6418   003474  C535  F527         	movff	I2C1_SetBuffer@bufferSize+1,_I2C1_Status+38
  6419   003478                     
  6420                           ;mcc_generated_files/i2c1_master.c: 299:         I2C1_Status.bufferFree = 0;
  6421   003478  982A               	bcf	(_I2C1_Status+41)^(0+1280),4,c
  6422   00347A                     l560:
  6423   00347A  0012               	return		;funcret
  6424   00347C                     __end_of_I2C1_SetBuffer:
  6425                           	callstack 0
  6426                           
  6427 ;; *************** function _I2C1_ClearInterruptFlags *****************
  6428 ;; Defined at:
  6429 ;;		line 362 in file "mcc_generated_files/i2c1_master.c"
  6430 ;; Parameters:    Size  Location     Type
  6431 ;;		None
  6432 ;; Auto vars:     Size  Location     Type
  6433 ;;		None
  6434 ;; Return value:  Size  Location     Type
  6435 ;;                  1    wreg      void 
  6436 ;; Registers used:
  6437 ;;		wreg, status,2, cstack
  6438 ;; Tracked objects:
  6439 ;;		On entry : 0/0
  6440 ;;		On exit  : 0/0
  6441 ;;		Unchanged: 0/0
  6442 ;; Data sizes:     COMRAM   BANK5   BANK6   BANK7   BANK8   BANK9  BANK10  BANK11  BANK12  BANK13  BANK14  BANK15  BANK1
      +6  BANK17  BANK18  BANK19  BANK20  BANK21  BANK22  BANK23  BANK24  BANK25  BANK26  BANK27  BANK28  BANK29  BANK30  BANK3
      +1  BANK32  BANK33  BANK34  BANK35  BANK36
  6443 ;;      Params:         0       0       0       0       0       0       0       0       0       0       0       0       
      +0       0       0       0       0       0       0       0       0       0       0       0       0       0       0       
      +0       0       0       0       0       0
  6444 ;;      Locals:         0       0       0       0       0       0       0       0       0       0       0       0       
      +0       0       0       0       0       0       0       0       0       0       0       0       0       0       0       
      +0       0       0       0       0       0
  6445 ;;      Temps:          0       0       0       0       0       0       0       0       0       0       0       0       
      +0       0       0       0       0       0       0       0       0       0       0       0       0       0       0       
      +0       0       0       0       0       0
  6446 ;;      Totals:         0       0       0       0       0       0       0       0       0       0       0       0       
      +0       0       0       0       0       0       0       0       0       0       0       0       0       0       0       
      +0       0       0       0       0       0
  6447 ;;Total ram usage:        0 bytes
  6448 ;; Hardware stack levels used: 1
  6449 ;; Hardware stack levels required when called: 1
  6450 ;; This function calls:
  6451 ;;		_I2C1_MasterClearCountFlag
  6452 ;;		_I2C1_MasterClearNackFlag
  6453 ;;		_I2C1_MasterClearStopFlag
  6454 ;;		_I2C1_MasterIsCountFlagSet
  6455 ;;		_I2C1_MasterIsNackFlagSet
  6456 ;;		_I2C1_MasterIsStopFlagSet
  6457 ;; This function is called by:
  6458 ;;		_I2C1_MasterFsm
  6459 ;; This function uses a non-reentrant model
  6460 ;;
  6461                           
  6462                           	psect	text73
  6463   003144                     __ptext73:
  6464                           	callstack 0
  6465   003144                     _I2C1_ClearInterruptFlags:
  6466                           	callstack 116
  6467   003144                     
  6468                           ;mcc_generated_files/i2c1_master.c: 364:     if(I2C1_MasterIsCountFlagSet())
  6469   003144  ECD3  F01A         	call	_I2C1_MasterIsCountFlagSet	;wreg free
  6470   003148  0900               	iorlw	0
  6471   00314A  B4D8               	btfsc	status,2,c
  6472   00314C  EFAA  F018         	goto	u131
  6473   003150  EFAC  F018         	goto	u130
  6474   003154                     u131:
  6475   003154  EFB0  F018         	goto	l2023
  6476   003158                     u130:
  6477   003158                     
  6478                           ;mcc_generated_files/i2c1_master.c: 365:     {;mcc_generated_files/i2c1_master.c: 366:  
      +                                 I2C1_MasterClearCountFlag();
  6479   003158  EC71  F01B         	call	_I2C1_MasterClearCountFlag	;wreg free
  6480                           
  6481                           ;mcc_generated_files/i2c1_master.c: 367:     }
  6482   00315C  EFCA  F018         	goto	l598
  6483   003160                     l2023:
  6484   003160  ECBD  F01A         	call	_I2C1_MasterIsStopFlagSet	;wreg free
  6485   003164  0900               	iorlw	0
  6486   003166  B4D8               	btfsc	status,2,c
  6487   003168  EFB8  F018         	goto	u141
  6488   00316C  EFBA  F018         	goto	u140
  6489   003170                     u141:
  6490   003170  EFBE  F018         	goto	l2027
  6491   003174                     u140:
  6492   003174                     
  6493                           ;mcc_generated_files/i2c1_master.c: 369:     {;mcc_generated_files/i2c1_master.c: 370:  
      +                                 I2C1_MasterClearStopFlag();
  6494   003174  EC6B  F01B         	call	_I2C1_MasterClearStopFlag	;wreg free
  6495                           
  6496                           ;mcc_generated_files/i2c1_master.c: 371:     }
  6497   003178  EFCA  F018         	goto	l598
  6498   00317C                     l2027:
  6499   00317C  ECC8  F01A         	call	_I2C1_MasterIsNackFlagSet	;wreg free
  6500   003180  0900               	iorlw	0
  6501   003182  B4D8               	btfsc	status,2,c
  6502   003184  EFC6  F018         	goto	u151
  6503   003188  EFC8  F018         	goto	u150
  6504   00318C                     u151:
  6505   00318C  EFCA  F018         	goto	l598
  6506   003190                     u150:
  6507   003190                     
  6508                           ;mcc_generated_files/i2c1_master.c: 373:     {;mcc_generated_files/i2c1_master.c: 374:  
      +                                 I2C1_MasterClearNackFlag();
  6509   003190  EC6E  F01B         	call	_I2C1_MasterClearNackFlag	;wreg free
  6510   003194                     l598:
  6511   003194  0012               	return		;funcret
  6512   003196                     __end_of_I2C1_ClearInterruptFlags:
  6513                           	callstack 0
  6514                           
  6515 ;; *************** function _I2C1_MasterIsStopFlagSet *****************
  6516 ;; Defined at:
  6517 ;;		line 745 in file "mcc_generated_files/i2c1_master.c"
  6518 ;; Parameters:    Size  Location     Type
  6519 ;;		None
  6520 ;; Auto vars:     Size  Location     Type
  6521 ;;		None
  6522 ;; Return value:  Size  Location     Type
  6523 ;;                  1    wreg      _Bool 
  6524 ;; Registers used:
  6525 ;;		wreg
  6526 ;; Tracked objects:
  6527 ;;		On entry : 0/0
  6528 ;;		On exit  : 0/0
  6529 ;;		Unchanged: 0/0
  6530 ;; Data sizes:     COMRAM   BANK5   BANK6   BANK7   BANK8   BANK9  BANK10  BANK11  BANK12  BANK13  BANK14  BANK15  BANK1
      +6  BANK17  BANK18  BANK19  BANK20  BANK21  BANK22  BANK23  BANK24  BANK25  BANK26  BANK27  BANK28  BANK29  BANK30  BANK3
      +1  BANK32  BANK33  BANK34  BANK35  BANK36
  6531 ;;      Params:         0       0       0       0       0       0       0       0       0       0       0       0       
      +0       0       0       0       0       0       0       0       0       0       0       0       0       0       0       
      +0       0       0       0       0       0
  6532 ;;      Locals:         0       0       0       0       0       0       0       0       0       0       0       0       
      +0       0       0       0       0       0       0       0       0       0       0       0       0       0       0       
      +0       0       0       0       0       0
  6533 ;;      Temps:          0       0       0       0       0       0       0       0       0       0       0       0       
      +0       0       0       0       0       0       0       0       0       0       0       0       0       0       0       
      +0       0       0       0       0       0
  6534 ;;      Totals:         0       0       0       0       0       0       0       0       0       0       0       0       
      +0       0       0       0       0       0       0       0       0       0       0       0       0       0       0       
      +0       0       0       0       0       0
  6535 ;;Total ram usage:        0 bytes
  6536 ;; Hardware stack levels used: 1
  6537 ;; This function calls:
  6538 ;;		Nothing
  6539 ;; This function is called by:
  6540 ;;		_I2C1_ClearInterruptFlags
  6541 ;; This function uses a non-reentrant model
  6542 ;;
  6543                           
  6544                           	psect	text74
  6545   00357A                     __ptext74:
  6546                           	callstack 0
  6547   00357A                     _I2C1_MasterIsStopFlagSet:
  6548                           	callstack 116
  6549   00357A                     
  6550                           ;mcc_generated_files/i2c1_master.c: 747:     return I2C1PIRbits.PCIF;
  6551   00357A  0102               	movlb	2	; () banked
  6552   00357C  B59A               	btfsc	154,2,b	;volatile
  6553   00357E  EFC3  F01A         	goto	u81
  6554   003582  EFC6  F01A         	goto	u80
  6555   003586                     u81:
  6556   003586  0E01               	movlw	1
  6557   003588  EFC7  F01A         	goto	u86
  6558   00358C                     u80:
  6559   00358C  0E00               	movlw	0
  6560   00358E                     u86:
  6561   00358E                     
  6562                           ; BSR set to: 2
  6563   00358E  0012               	return		;funcret
  6564   003590                     __end_of_I2C1_MasterIsStopFlagSet:
  6565                           	callstack 0
  6566                           
  6567 ;; *************** function _I2C1_MasterIsNackFlagSet *****************
  6568 ;; Defined at:
  6569 ;;		line 755 in file "mcc_generated_files/i2c1_master.c"
  6570 ;; Parameters:    Size  Location     Type
  6571 ;;		None
  6572 ;; Auto vars:     Size  Location     Type
  6573 ;;		None
  6574 ;; Return value:  Size  Location     Type
  6575 ;;                  1    wreg      _Bool 
  6576 ;; Registers used:
  6577 ;;		wreg
  6578 ;; Tracked objects:
  6579 ;;		On entry : 0/0
  6580 ;;		On exit  : 0/0
  6581 ;;		Unchanged: 0/0
  6582 ;; Data sizes:     COMRAM   BANK5   BANK6   BANK7   BANK8   BANK9  BANK10  BANK11  BANK12  BANK13  BANK14  BANK15  BANK1
      +6  BANK17  BANK18  BANK19  BANK20  BANK21  BANK22  BANK23  BANK24  BANK25  BANK26  BANK27  BANK28  BANK29  BANK30  BANK3
      +1  BANK32  BANK33  BANK34  BANK35  BANK36
  6583 ;;      Params:         0       0       0       0       0       0       0       0       0       0       0       0       
      +0       0       0       0       0       0       0       0       0       0       0       0       0       0       0       
      +0       0       0       0       0       0
  6584 ;;      Locals:         0       0       0       0       0       0       0       0       0       0       0       0       
      +0       0       0       0       0       0       0       0       0       0       0       0       0       0       0       
      +0       0       0       0       0       0
  6585 ;;      Temps:          0       0       0       0       0       0       0       0       0       0       0       0       
      +0       0       0       0       0       0       0       0       0       0       0       0       0       0       0       
      +0       0       0       0       0       0
  6586 ;;      Totals:         0       0       0       0       0       0       0       0       0       0       0       0       
      +0       0       0       0       0       0       0       0       0       0       0       0       0       0       0       
      +0       0       0       0       0       0
  6587 ;;Total ram usage:        0 bytes
  6588 ;; Hardware stack levels used: 1
  6589 ;; This function calls:
  6590 ;;		Nothing
  6591 ;; This function is called by:
  6592 ;;		_I2C1_ClearInterruptFlags
  6593 ;; This function uses a non-reentrant model
  6594 ;;
  6595                           
  6596                           	psect	text75
  6597   003590                     __ptext75:
  6598                           	callstack 0
  6599   003590                     _I2C1_MasterIsNackFlagSet:
  6600                           	callstack 116
  6601   003590                     
  6602                           ;mcc_generated_files/i2c1_master.c: 757:     return I2C1ERRbits.NACKIF;
  6603   003590  0102               	movlb	2	; () banked
  6604   003592  B997               	btfsc	151,4,b	;volatile
  6605   003594  EFCE  F01A         	goto	u91
  6606   003598  EFD1  F01A         	goto	u90
  6607   00359C                     u91:
  6608   00359C  0E01               	movlw	1
  6609   00359E  EFD2  F01A         	goto	u96
  6610   0035A2                     u90:
  6611   0035A2  0E00               	movlw	0
  6612   0035A4                     u96:
  6613   0035A4                     
  6614                           ; BSR set to: 2
  6615   0035A4  0012               	return		;funcret
  6616   0035A6                     __end_of_I2C1_MasterIsNackFlagSet:
  6617                           	callstack 0
  6618                           
  6619 ;; *************** function _I2C1_MasterIsCountFlagSet *****************
  6620 ;; Defined at:
  6621 ;;		line 750 in file "mcc_generated_files/i2c1_master.c"
  6622 ;; Parameters:    Size  Location     Type
  6623 ;;		None
  6624 ;; Auto vars:     Size  Location     Type
  6625 ;;		None
  6626 ;; Return value:  Size  Location     Type
  6627 ;;                  1    wreg      _Bool 
  6628 ;; Registers used:
  6629 ;;		wreg
  6630 ;; Tracked objects:
  6631 ;;		On entry : 0/0
  6632 ;;		On exit  : 0/0
  6633 ;;		Unchanged: 0/0
  6634 ;; Data sizes:     COMRAM   BANK5   BANK6   BANK7   BANK8   BANK9  BANK10  BANK11  BANK12  BANK13  BANK14  BANK15  BANK1
      +6  BANK17  BANK18  BANK19  BANK20  BANK21  BANK22  BANK23  BANK24  BANK25  BANK26  BANK27  BANK28  BANK29  BANK30  BANK3
      +1  BANK32  BANK33  BANK34  BANK35  BANK36
  6635 ;;      Params:         0       0       0       0       0       0       0       0       0       0       0       0       
      +0       0       0       0       0       0       0       0       0       0       0       0       0       0       0       
      +0       0       0       0       0       0
  6636 ;;      Locals:         0       0       0       0       0       0       0       0       0       0       0       0       
      +0       0       0       0       0       0       0       0       0       0       0       0       0       0       0       
      +0       0       0       0       0       0
  6637 ;;      Temps:          0       0       0       0       0       0       0       0       0       0       0       0       
      +0       0       0       0       0       0       0       0       0       0       0       0       0       0       0       
      +0       0       0       0       0       0
  6638 ;;      Totals:         0       0       0       0       0       0       0       0       0       0       0       0       
      +0       0       0       0       0       0       0       0       0       0       0       0       0       0       0       
      +0       0       0       0       0       0
  6639 ;;Total ram usage:        0 bytes
  6640 ;; Hardware stack levels used: 1
  6641 ;; This function calls:
  6642 ;;		Nothing
  6643 ;; This function is called by:
  6644 ;;		_I2C1_ClearInterruptFlags
  6645 ;; This function uses a non-reentrant model
  6646 ;;
  6647                           
  6648                           	psect	text76
  6649   0035A6                     __ptext76:
  6650                           	callstack 0
  6651   0035A6                     _I2C1_MasterIsCountFlagSet:
  6652                           	callstack 116
  6653   0035A6                     
  6654                           ;mcc_generated_files/i2c1_master.c: 752:     return I2C1PIRbits.CNTIF;
  6655   0035A6  0102               	movlb	2	; () banked
  6656   0035A8  BF9A               	btfsc	154,7,b	;volatile
  6657   0035AA  EFD9  F01A         	goto	u71
  6658   0035AE  EFDC  F01A         	goto	u70
  6659   0035B2                     u71:
  6660   0035B2  0E01               	movlw	1
  6661   0035B4  EFDD  F01A         	goto	u76
  6662   0035B8                     u70:
  6663   0035B8  0E00               	movlw	0
  6664   0035BA                     u76:
  6665   0035BA                     
  6666                           ; BSR set to: 2
  6667   0035BA  0012               	return		;funcret
  6668   0035BC                     __end_of_I2C1_MasterIsCountFlagSet:
  6669                           	callstack 0
  6670                           
  6671 ;; *************** function _I2C1_MasterClearStopFlag *****************
  6672 ;; Defined at:
  6673 ;;		line 760 in file "mcc_generated_files/i2c1_master.c"
  6674 ;; Parameters:    Size  Location     Type
  6675 ;;		None
  6676 ;; Auto vars:     Size  Location     Type
  6677 ;;		None
  6678 ;; Return value:  Size  Location     Type
  6679 ;;                  1    wreg      void 
  6680 ;; Registers used:
  6681 ;;		None
  6682 ;; Tracked objects:
  6683 ;;		On entry : 0/0
  6684 ;;		On exit  : 0/0
  6685 ;;		Unchanged: 0/0
  6686 ;; Data sizes:     COMRAM   BANK5   BANK6   BANK7   BANK8   BANK9  BANK10  BANK11  BANK12  BANK13  BANK14  BANK15  BANK1
      +6  BANK17  BANK18  BANK19  BANK20  BANK21  BANK22  BANK23  BANK24  BANK25  BANK26  BANK27  BANK28  BANK29  BANK30  BANK3
      +1  BANK32  BANK33  BANK34  BANK35  BANK36
  6687 ;;      Params:         0       0       0       0       0       0       0       0       0       0       0       0       
      +0       0       0       0       0       0       0       0       0       0       0       0       0       0       0       
      +0       0       0       0       0       0
  6688 ;;      Locals:         0       0       0       0       0       0       0       0       0       0       0       0       
      +0       0       0       0       0       0       0       0       0       0       0       0       0       0       0       
      +0       0       0       0       0       0
  6689 ;;      Temps:          0       0       0       0       0       0       0       0       0       0       0       0       
      +0       0       0       0       0       0       0       0       0       0       0       0       0       0       0       
      +0       0       0       0       0       0
  6690 ;;      Totals:         0       0       0       0       0       0       0       0       0       0       0       0       
      +0       0       0       0       0       0       0       0       0       0       0       0       0       0       0       
      +0       0       0       0       0       0
  6691 ;;Total ram usage:        0 bytes
  6692 ;; Hardware stack levels used: 1
  6693 ;; This function calls:
  6694 ;;		Nothing
  6695 ;; This function is called by:
  6696 ;;		_I2C1_ClearInterruptFlags
  6697 ;; This function uses a non-reentrant model
  6698 ;;
  6699                           
  6700                           	psect	text77
  6701   0036D6                     __ptext77:
  6702                           	callstack 0
  6703   0036D6                     _I2C1_MasterClearStopFlag:
  6704                           	callstack 116
  6705   0036D6                     
  6706                           ;mcc_generated_files/i2c1_master.c: 762:     I2C1PIRbits.PCIF = 0;
  6707   0036D6  0102               	movlb	2	; () banked
  6708   0036D8  959A               	bcf	154,2,b	;volatile
  6709   0036DA                     
  6710                           ; BSR set to: 2
  6711   0036DA  0012               	return		;funcret
  6712   0036DC                     __end_of_I2C1_MasterClearStopFlag:
  6713                           	callstack 0
  6714                           
  6715 ;; *************** function _I2C1_MasterClearNackFlag *****************
  6716 ;; Defined at:
  6717 ;;		line 770 in file "mcc_generated_files/i2c1_master.c"
  6718 ;; Parameters:    Size  Location     Type
  6719 ;;		None
  6720 ;; Auto vars:     Size  Location     Type
  6721 ;;		None
  6722 ;; Return value:  Size  Location     Type
  6723 ;;                  1    wreg      void 
  6724 ;; Registers used:
  6725 ;;		None
  6726 ;; Tracked objects:
  6727 ;;		On entry : 0/0
  6728 ;;		On exit  : 0/0
  6729 ;;		Unchanged: 0/0
  6730 ;; Data sizes:     COMRAM   BANK5   BANK6   BANK7   BANK8   BANK9  BANK10  BANK11  BANK12  BANK13  BANK14  BANK15  BANK1
      +6  BANK17  BANK18  BANK19  BANK20  BANK21  BANK22  BANK23  BANK24  BANK25  BANK26  BANK27  BANK28  BANK29  BANK30  BANK3
      +1  BANK32  BANK33  BANK34  BANK35  BANK36
  6731 ;;      Params:         0       0       0       0       0       0       0       0       0       0       0       0       
      +0       0       0       0       0       0       0       0       0       0       0       0       0       0       0       
      +0       0       0       0       0       0
  6732 ;;      Locals:         0       0       0       0       0       0       0       0       0       0       0       0       
      +0       0       0       0       0       0       0       0       0       0       0       0       0       0       0       
      +0       0       0       0       0       0
  6733 ;;      Temps:          0       0       0       0       0       0       0       0       0       0       0       0       
      +0       0       0       0       0       0       0       0       0       0       0       0       0       0       0       
      +0       0       0       0       0       0
  6734 ;;      Totals:         0       0       0       0       0       0       0       0       0       0       0       0       
      +0       0       0       0       0       0       0       0       0       0       0       0       0       0       0       
      +0       0       0       0       0       0
  6735 ;;Total ram usage:        0 bytes
  6736 ;; Hardware stack levels used: 1
  6737 ;; This function calls:
  6738 ;;		Nothing
  6739 ;; This function is called by:
  6740 ;;		_I2C1_ClearInterruptFlags
  6741 ;; This function uses a non-reentrant model
  6742 ;;
  6743                           
  6744                           	psect	text78
  6745   0036DC                     __ptext78:
  6746                           	callstack 0
  6747   0036DC                     _I2C1_MasterClearNackFlag:
  6748                           	callstack 116
  6749   0036DC                     
  6750                           ;mcc_generated_files/i2c1_master.c: 772:     I2C1ERRbits.NACKIF = 0;
  6751   0036DC  0102               	movlb	2	; () banked
  6752   0036DE  9997               	bcf	151,4,b	;volatile
  6753   0036E0                     
  6754                           ; BSR set to: 2
  6755   0036E0  0012               	return		;funcret
  6756   0036E2                     __end_of_I2C1_MasterClearNackFlag:
  6757                           	callstack 0
  6758                           
  6759 ;; *************** function _I2C1_MasterClearCountFlag *****************
  6760 ;; Defined at:
  6761 ;;		line 765 in file "mcc_generated_files/i2c1_master.c"
  6762 ;; Parameters:    Size  Location     Type
  6763 ;;		None
  6764 ;; Auto vars:     Size  Location     Type
  6765 ;;		None
  6766 ;; Return value:  Size  Location     Type
  6767 ;;                  1    wreg      void 
  6768 ;; Registers used:
  6769 ;;		None
  6770 ;; Tracked objects:
  6771 ;;		On entry : 0/0
  6772 ;;		On exit  : 0/0
  6773 ;;		Unchanged: 0/0
  6774 ;; Data sizes:     COMRAM   BANK5   BANK6   BANK7   BANK8   BANK9  BANK10  BANK11  BANK12  BANK13  BANK14  BANK15  BANK1
      +6  BANK17  BANK18  BANK19  BANK20  BANK21  BANK22  BANK23  BANK24  BANK25  BANK26  BANK27  BANK28  BANK29  BANK30  BANK3
      +1  BANK32  BANK33  BANK34  BANK35  BANK36
  6775 ;;      Params:         0       0       0       0       0       0       0       0       0       0       0       0       
      +0       0       0       0       0       0       0       0       0       0       0       0       0       0       0       
      +0       0       0       0       0       0
  6776 ;;      Locals:         0       0       0       0       0       0       0       0       0       0       0       0       
      +0       0       0       0       0       0       0       0       0       0       0       0       0       0       0       
      +0       0       0       0       0       0
  6777 ;;      Temps:          0       0       0       0       0       0       0       0       0       0       0       0       
      +0       0       0       0       0       0       0       0       0       0       0       0       0       0       0       
      +0       0       0       0       0       0
  6778 ;;      Totals:         0       0       0       0       0       0       0       0       0       0       0       0       
      +0       0       0       0       0       0       0       0       0       0       0       0       0       0       0       
      +0       0       0       0       0       0
  6779 ;;Total ram usage:        0 bytes
  6780 ;; Hardware stack levels used: 1
  6781 ;; This function calls:
  6782 ;;		Nothing
  6783 ;; This function is called by:
  6784 ;;		_I2C1_ClearInterruptFlags
  6785 ;; This function uses a non-reentrant model
  6786 ;;
  6787                           
  6788                           	psect	text79
  6789   0036E2                     __ptext79:
  6790                           	callstack 0
  6791   0036E2                     _I2C1_MasterClearCountFlag:
  6792                           	callstack 116
  6793   0036E2                     
  6794                           ;mcc_generated_files/i2c1_master.c: 767:     I2C1PIRbits.CNTIF = 0;
  6795   0036E2  0102               	movlb	2	; () banked
  6796   0036E4  9F9A               	bcf	154,7,b	;volatile
  6797   0036E6                     
  6798                           ; BSR set to: 2
  6799   0036E6  0012               	return		;funcret
  6800   0036E8                     __end_of_I2C1_MasterClearCountFlag:
  6801                           	callstack 0
  6802                           
  6803 ;; *************** function _I2C1_Close *****************
  6804 ;; Defined at:
  6805 ;;		line 237 in file "mcc_generated_files/i2c1_master.c"
  6806 ;; Parameters:    Size  Location     Type
  6807 ;;		None
  6808 ;; Auto vars:     Size  Location     Type
  6809 ;;  returnValue     1    0[COMRAM] enum E358
  6810 ;; Return value:  Size  Location     Type
  6811 ;;                  1    wreg      enum E358
  6812 ;; Registers used:
  6813 ;;		wreg, status,2, cstack
  6814 ;; Tracked objects:
  6815 ;;		On entry : 0/0
  6816 ;;		On exit  : 0/0
  6817 ;;		Unchanged: 0/0
  6818 ;; Data sizes:     COMRAM   BANK5   BANK6   BANK7   BANK8   BANK9  BANK10  BANK11  BANK12  BANK13  BANK14  BANK15  BANK1
      +6  BANK17  BANK18  BANK19  BANK20  BANK21  BANK22  BANK23  BANK24  BANK25  BANK26  BANK27  BANK28  BANK29  BANK30  BANK3
      +1  BANK32  BANK33  BANK34  BANK35  BANK36
  6819 ;;      Params:         0       0       0       0       0       0       0       0       0       0       0       0       
      +0       0       0       0       0       0       0       0       0       0       0       0       0       0       0       
      +0       0       0       0       0       0
  6820 ;;      Locals:         1       0       0       0       0       0       0       0       0       0       0       0       
      +0       0       0       0       0       0       0       0       0       0       0       0       0       0       0       
      +0       0       0       0       0       0
  6821 ;;      Temps:          0       0       0       0       0       0       0       0       0       0       0       0       
      +0       0       0       0       0       0       0       0       0       0       0       0       0       0       0       
      +0       0       0       0       0       0
  6822 ;;      Totals:         1       0       0       0       0       0       0       0       0       0       0       0       
      +0       0       0       0       0       0       0       0       0       0       0       0       0       0       0       
      +0       0       0       0       0       0
  6823 ;;Total ram usage:        1 bytes
  6824 ;; Hardware stack levels used: 1
  6825 ;; Hardware stack levels required when called: 1
  6826 ;; This function calls:
  6827 ;;		_I2C1_MasterClearIrq
  6828 ;;		_I2C1_MasterClose
  6829 ;;		_I2C1_MasterDisableIrq
  6830 ;; This function is called by:
  6831 ;;		_I2C1_Write
  6832 ;;		_I2C1_Read1ByteRegister
  6833 ;;		_I2C1_Read2ByteRegister
  6834 ;;		_I2C1_Write1ByteRegister
  6835 ;;		_I2C1_Write2ByteRegister
  6836 ;;		_I2C1_WriteNBytes
  6837 ;;		_I2C1_ReadNBytes
  6838 ;;		_I2C1_ReadDataBlock
  6839 ;; This function uses a non-reentrant model
  6840 ;;
  6841                           
  6842                           	psect	text80
  6843   00339C                     __ptext80:
  6844                           	callstack 0
  6845   00339C                     _I2C1_Close:
  6846                           	callstack 120
  6847   00339C                     
  6848                           ;mcc_generated_files/i2c1_master.c: 239:     i2c1_error_t returnValue = I2C1_BUSY;
  6849   00339C  0E01               	movlw	1
  6850   00339E  6E32               	movwf	I2C1_Close@returnValue^(0+1280),c
  6851   0033A0                     
  6852                           ;mcc_generated_files/i2c1_master.c: 240:     if(!I2C1_Status.busy)
  6853   0033A0  B42A               	btfsc	(_I2C1_Status+41)^(0+1280),2,c
  6854   0033A2  EFD5  F019         	goto	u401
  6855   0033A6  EFD7  F019         	goto	u400
  6856   0033AA                     u401:
  6857   0033AA  EFE1  F019         	goto	l2343
  6858   0033AE                     u400:
  6859   0033AE                     
  6860                           ;mcc_generated_files/i2c1_master.c: 241:     {;mcc_generated_files/i2c1_master.c: 242:  
      +                                 I2C1_Status.inUse = 0;
  6861   0033AE  962A               	bcf	(_I2C1_Status+41)^(0+1280),3,c
  6862                           
  6863                           ;mcc_generated_files/i2c1_master.c: 243:         I2C1_Status.address = 0xff;
  6864   0033B0  6823               	setf	(_I2C1_Status+34)^(0+1280),c
  6865   0033B2                     
  6866                           ;mcc_generated_files/i2c1_master.c: 244:         I2C1_MasterClearIrq();
  6867   0033B2  EC52  F01B         	call	_I2C1_MasterClearIrq	;wreg free
  6868   0033B6                     
  6869                           ;mcc_generated_files/i2c1_master.c: 245:         I2C1_MasterDisableIrq();
  6870   0033B6  EC76  F01A         	call	_I2C1_MasterDisableIrq	;wreg free
  6871   0033BA                     
  6872                           ;mcc_generated_files/i2c1_master.c: 246:         I2C1_MasterClose();
  6873   0033BA  EC20  F01B         	call	_I2C1_MasterClose	;wreg free
  6874   0033BE                     
  6875                           ;mcc_generated_files/i2c1_master.c: 247:         returnValue = I2C1_Status.error;
  6876   0033BE  C529  F532         	movff	_I2C1_Status+40,I2C1_Close@returnValue
  6877   0033C2                     l2343:
  6878                           
  6879                           ;mcc_generated_files/i2c1_master.c: 249:     return returnValue;
  6880   0033C2  5032               	movf	I2C1_Close@returnValue^(0+1280),w,c
  6881   0033C4  0012               	return		;funcret
  6882   0033C6                     __end_of_I2C1_Close:
  6883                           	callstack 0
  6884                           
  6885 ;; *************** function _I2C1_MasterDisableIrq *****************
  6886 ;; Defined at:
  6887 ;;		line 792 in file "mcc_generated_files/i2c1_master.c"
  6888 ;; Parameters:    Size  Location     Type
  6889 ;;		None
  6890 ;; Auto vars:     Size  Location     Type
  6891 ;;		None
  6892 ;; Return value:  Size  Location     Type
  6893 ;;                  1    wreg      void 
  6894 ;; Registers used:
  6895 ;;		None
  6896 ;; Tracked objects:
  6897 ;;		On entry : 0/0
  6898 ;;		On exit  : 0/0
  6899 ;;		Unchanged: 0/0
  6900 ;; Data sizes:     COMRAM   BANK5   BANK6   BANK7   BANK8   BANK9  BANK10  BANK11  BANK12  BANK13  BANK14  BANK15  BANK1
      +6  BANK17  BANK18  BANK19  BANK20  BANK21  BANK22  BANK23  BANK24  BANK25  BANK26  BANK27  BANK28  BANK29  BANK30  BANK3
      +1  BANK32  BANK33  BANK34  BANK35  BANK36
  6901 ;;      Params:         0       0       0       0       0       0       0       0       0       0       0       0       
      +0       0       0       0       0       0       0       0       0       0       0       0       0       0       0       
      +0       0       0       0       0       0
  6902 ;;      Locals:         0       0       0       0       0       0       0       0       0       0       0       0       
      +0       0       0       0       0       0       0       0       0       0       0       0       0       0       0       
      +0       0       0       0       0       0
  6903 ;;      Temps:          0       0       0       0       0       0       0       0       0       0       0       0       
      +0       0       0       0       0       0       0       0       0       0       0       0       0       0       0       
      +0       0       0       0       0       0
  6904 ;;      Totals:         0       0       0       0       0       0       0       0       0       0       0       0       
      +0       0       0       0       0       0       0       0       0       0       0       0       0       0       0       
      +0       0       0       0       0       0
  6905 ;;Total ram usage:        0 bytes
  6906 ;; Hardware stack levels used: 1
  6907 ;; This function calls:
  6908 ;;		Nothing
  6909 ;; This function is called by:
  6910 ;;		_I2C1_Close
  6911 ;;		_I2C1_SetTimeOut
  6912 ;; This function uses a non-reentrant model
  6913 ;;
  6914                           
  6915                           	psect	text81
  6916   0034EC                     __ptext81:
  6917                           	callstack 0
  6918   0034EC                     _I2C1_MasterDisableIrq:
  6919                           	callstack 120
  6920   0034EC                     
  6921                           ;mcc_generated_files/i2c1_master.c: 794:     PIE7bits.I2C1IE = 0;
  6922   0034EC  94A5               	bcf	165,2,c	;volatile
  6923                           
  6924                           ;mcc_generated_files/i2c1_master.c: 795:     PIE7bits.I2C1EIE = 0;
  6925   0034EE  96A5               	bcf	165,3,c	;volatile
  6926                           
  6927                           ;mcc_generated_files/i2c1_master.c: 796:     PIE7bits.I2C1RXIE = 0;
  6928   0034F0  90A5               	bcf	165,0,c	;volatile
  6929                           
  6930                           ;mcc_generated_files/i2c1_master.c: 797:     PIE7bits.I2C1TXIE = 0;
  6931   0034F2  92A5               	bcf	165,1,c	;volatile
  6932                           
  6933                           ;mcc_generated_files/i2c1_master.c: 798:     I2C1PIEbits.SCIE = 0;
  6934   0034F4  0102               	movlb	2	; () banked
  6935   0034F6  919B               	bcf	155,0,b	;volatile
  6936                           
  6937                           ;mcc_generated_files/i2c1_master.c: 799:     I2C1PIEbits.PCIE = 0;
  6938   0034F8  959B               	bcf	155,2,b	;volatile
  6939                           
  6940                           ;mcc_generated_files/i2c1_master.c: 800:     I2C1PIEbits.CNTIE = 0;
  6941   0034FA  9F9B               	bcf	155,7,b	;volatile
  6942                           
  6943                           ;mcc_generated_files/i2c1_master.c: 801:     I2C1PIEbits.ACKTIE = 0;
  6944   0034FC  9D9B               	bcf	155,6,b	;volatile
  6945                           
  6946                           ;mcc_generated_files/i2c1_master.c: 802:     I2C1PIEbits.RSCIE = 0;
  6947   0034FE  939B               	bcf	155,1,b	;volatile
  6948                           
  6949                           ;mcc_generated_files/i2c1_master.c: 803:     I2C1ERRbits.BCLIE = 0;
  6950   003500  9397               	bcf	151,1,b	;volatile
  6951                           
  6952                           ;mcc_generated_files/i2c1_master.c: 804:     I2C1ERRbits.BTOIE = 0;
  6953   003502  9597               	bcf	151,2,b	;volatile
  6954                           
  6955                           ;mcc_generated_files/i2c1_master.c: 805:     I2C1ERRbits.NACKIE = 0;
  6956   003504  9197               	bcf	151,0,b	;volatile
  6957   003506                     
  6958                           ; BSR set to: 2
  6959   003506  0012               	return		;funcret
  6960   003508                     __end_of_I2C1_MasterDisableIrq:
  6961                           	callstack 0
  6962                           
  6963 ;; *************** function _I2C1_MasterClose *****************
  6964 ;; Defined at:
  6965 ;;		line 655 in file "mcc_generated_files/i2c1_master.c"
  6966 ;; Parameters:    Size  Location     Type
  6967 ;;		None
  6968 ;; Auto vars:     Size  Location     Type
  6969 ;;		None
  6970 ;; Return value:  Size  Location     Type
  6971 ;;                  1    wreg      void 
  6972 ;; Registers used:
  6973 ;;		wreg, status,2
  6974 ;; Tracked objects:
  6975 ;;		On entry : 0/0
  6976 ;;		On exit  : 0/0
  6977 ;;		Unchanged: 0/0
  6978 ;; Data sizes:     COMRAM   BANK5   BANK6   BANK7   BANK8   BANK9  BANK10  BANK11  BANK12  BANK13  BANK14  BANK15  BANK1
      +6  BANK17  BANK18  BANK19  BANK20  BANK21  BANK22  BANK23  BANK24  BANK25  BANK26  BANK27  BANK28  BANK29  BANK30  BANK3
      +1  BANK32  BANK33  BANK34  BANK35  BANK36
  6979 ;;      Params:         0       0       0       0       0       0       0       0       0       0       0       0       
      +0       0       0       0       0       0       0       0       0       0       0       0       0       0       0       
      +0       0       0       0       0       0
  6980 ;;      Locals:         0       0       0       0       0       0       0       0       0       0       0       0       
      +0       0       0       0       0       0       0       0       0       0       0       0       0       0       0       
      +0       0       0       0       0       0
  6981 ;;      Temps:          0       0       0       0       0       0       0       0       0       0       0       0       
      +0       0       0       0       0       0       0       0       0       0       0       0       0       0       0       
      +0       0       0       0       0       0
  6982 ;;      Totals:         0       0       0       0       0       0       0       0       0       0       0       0       
      +0       0       0       0       0       0       0       0       0       0       0       0       0       0       0       
      +0       0       0       0       0       0
  6983 ;;Total ram usage:        0 bytes
  6984 ;; Hardware stack levels used: 1
  6985 ;; This function calls:
  6986 ;;		Nothing
  6987 ;; This function is called by:
  6988 ;;		_I2C1_Close
  6989 ;; This function uses a non-reentrant model
  6990 ;;
  6991                           
  6992                           	psect	text82
  6993   003640                     __ptext82:
  6994                           	callstack 0
  6995   003640                     _I2C1_MasterClose:
  6996                           	callstack 120
  6997   003640                     
  6998                           ;mcc_generated_files/i2c1_master.c: 658:     I2C1CON0bits.EN = 0;
  6999   003640  0102               	movlb	2	; () banked
  7000   003642  9F94               	bcf	148,7,b	;volatile
  7001   003644                     
  7002                           ; BSR set to: 2
  7003                           ;mcc_generated_files/i2c1_master.c: 660:     I2C1PIR = 0x00;
  7004   003644  0E00               	movlw	0
  7005   003646  6F9A               	movwf	154,b	;volatile
  7006   003648                     
  7007                           ; BSR set to: 2
  7008                           ;mcc_generated_files/i2c1_master.c: 662:     I2C1STAT1bits.CLRBF = 1;
  7009   003648  8599               	bsf	153,2,b	;volatile
  7010   00364A                     
  7011                           ; BSR set to: 2
  7012   00364A  0012               	return		;funcret
  7013   00364C                     __end_of_I2C1_MasterClose:
  7014                           	callstack 0
  7015                           
  7016 ;; *************** function _I2C1_MasterClearIrq *****************
  7017 ;; Defined at:
  7018 ;;		line 808 in file "mcc_generated_files/i2c1_master.c"
  7019 ;; Parameters:    Size  Location     Type
  7020 ;;		None
  7021 ;; Auto vars:     Size  Location     Type
  7022 ;;		None
  7023 ;; Return value:  Size  Location     Type
  7024 ;;                  1    wreg      void 
  7025 ;; Registers used:
  7026 ;;		wreg, status,2
  7027 ;; Tracked objects:
  7028 ;;		On entry : 0/0
  7029 ;;		On exit  : 0/0
  7030 ;;		Unchanged: 0/0
  7031 ;; Data sizes:     COMRAM   BANK5   BANK6   BANK7   BANK8   BANK9  BANK10  BANK11  BANK12  BANK13  BANK14  BANK15  BANK1
      +6  BANK17  BANK18  BANK19  BANK20  BANK21  BANK22  BANK23  BANK24  BANK25  BANK26  BANK27  BANK28  BANK29  BANK30  BANK3
      +1  BANK32  BANK33  BANK34  BANK35  BANK36
  7032 ;;      Params:         0       0       0       0       0       0       0       0       0       0       0       0       
      +0       0       0       0       0       0       0       0       0       0       0       0       0       0       0       
      +0       0       0       0       0       0
  7033 ;;      Locals:         0       0       0       0       0       0       0       0       0       0       0       0       
      +0       0       0       0       0       0       0       0       0       0       0       0       0       0       0       
      +0       0       0       0       0       0
  7034 ;;      Temps:          0       0       0       0       0       0       0       0       0       0       0       0       
      +0       0       0       0       0       0       0       0       0       0       0       0       0       0       0       
      +0       0       0       0       0       0
  7035 ;;      Totals:         0       0       0       0       0       0       0       0       0       0       0       0       
      +0       0       0       0       0       0       0       0       0       0       0       0       0       0       0       
      +0       0       0       0       0       0
  7036 ;;Total ram usage:        0 bytes
  7037 ;; Hardware stack levels used: 1
  7038 ;; This function calls:
  7039 ;;		Nothing
  7040 ;; This function is called by:
  7041 ;;		_I2C1_Open
  7042 ;;		_I2C1_Close
  7043 ;;		_I2C1_DO_BUS_COLLISION
  7044 ;; This function uses a non-reentrant model
  7045 ;;
  7046                           
  7047                           	psect	text83
  7048   0036A4                     __ptext83:
  7049                           	callstack 0
  7050   0036A4                     _I2C1_MasterClearIrq:
  7051                           	callstack 120
  7052   0036A4                     
  7053                           ;mcc_generated_files/i2c1_master.c: 810:     I2C1PIR = 0x00;
  7054   0036A4  0E00               	movlw	0
  7055   0036A6  0102               	movlb	2	; () banked
  7056   0036A8  6F9A               	movwf	154,b	;volatile
  7057   0036AA                     
  7058                           ; BSR set to: 2
  7059   0036AA  0012               	return		;funcret
  7060   0036AC                     __end_of_I2C1_MasterClearIrq:
  7061                           	callstack 0
  7062                           
  7063                           	psect	text84
  7064   000000                     __ptext84:
  7065                           	callstack 0
  7066   000000                     
  7067                           	psect	rparam
  7068   000000                     
  7069                           	psect	config
  7070                           
  7071                           ;Config register CONFIG1 @ 0x300000
  7072                           ;	External Oscillator Selection
  7073                           ;	FEXTOSC = OFF, Oscillator not enabled
  7074                           ;	Reset Oscillator Selection
  7075                           ;	RSTOSC = HFINTOSC_64MHZ, HFINTOSC with HFFRQ = 64 MHz and CDIV = 1:1
  7076   300000                     	org	3145728
  7077   300000  8C                 	db	140
  7078                           
  7079                           ;Config register CONFIG2 @ 0x300001
  7080                           ;	Clock out Enable bit
  7081                           ;	CLKOUTEN = OFF, CLKOUT function is disabled
  7082                           ;	PRLOCKED One-Way Set Enable bit
  7083                           ;	PR1WAY = ON, PRLOCKED bit can be cleared and set only once
  7084                           ;	Clock Switch Enable bit
  7085                           ;	CSWEN = ON, Writing to NOSC and NDIV is allowed
  7086                           ;	Fail-Safe Clock Monitor Enable bit
  7087                           ;	FCMEN = ON, Fail-Safe Clock Monitor enabled
  7088   300001                     	org	3145729
  7089   300001  FF                 	db	255
  7090                           
  7091                           ;Config register CONFIG3 @ 0x300002
  7092                           ;	MCLR Enable bit
  7093                           ;	MCLRE = EXTMCLR, If LVP = 0, MCLR pin is MCLR; If LVP = 1, RE3 pin function is MCLR
  7094                           ;	Power-up timer selection bits
  7095                           ;	PWRTS = PWRT_OFF, PWRT is disabled
  7096                           ;	Multi-vector enable bit
  7097                           ;	MVECEN = OFF, Interrupt contoller does not use vector table to prioritze interrupts
  7098                           ;	IVTLOCK bit One-way set enable bit
  7099                           ;	IVT1WAY = ON, IVTLOCKED bit can be cleared and set only once
  7100                           ;	Low Power BOR Enable bit
  7101                           ;	LPBOREN = OFF, Low-Power BOR disabled
  7102                           ;	Brown-out Reset Enable bits
  7103                           ;	BOREN = SBORDIS, Brown-out Reset enabled , SBOREN bit is ignored
  7104   300002                     	org	3145730
  7105   300002  F7                 	db	247
  7106                           
  7107                           ;Config register CONFIG4 @ 0x300003
  7108                           ;	Brown-out Reset Voltage Selection bits
  7109                           ;	BORV = VBOR_1P9, Brown-out Reset Voltage (VBOR) set to 1.9V
  7110                           ;	ZCD Disable bit
  7111                           ;	ZCD = OFF, ZCD module is disabled. ZCD can be enabled by setting the ZCDSEN bit of ZCD
      +                          CON
  7112                           ;	PPSLOCK bit One-Way Set Enable bit
  7113                           ;	PPS1WAY = ON, PPSLOCKED bit can be cleared and set only once; PPS registers remain loc
      +                          ked after one clear/set cycle
  7114                           ;	Stack Full/Underflow Reset Enable bit
  7115                           ;	STVREN = ON, Stack full/underflow will cause Reset
  7116                           ;	Low Voltage Programming Enable bit
  7117                           ;	LVP = ON, Low voltage programming enabled. MCLR/VPP pin function is MCLR. MCLRE config
      +                          uration bit is ignored
  7118                           ;	Extended Instruction Set Enable bit
  7119                           ;	XINST = OFF, Extended Instruction Set and Indexed Addressing Mode disabled
  7120   300003                     	org	3145731
  7121   300003  FF                 	db	255
  7122                           
  7123                           ;Config register CONFIG5 @ 0x300004
  7124                           ;	WDT Period selection bits
  7125                           ;	WDTCPS = WDTCPS_31, Divider ratio 1:65536; software control of WDTPS
  7126                           ;	WDT operating mode
  7127                           ;	WDTE = OFF, WDT Disabled; SWDTEN is ignored
  7128   300004                     	org	3145732
  7129   300004  9F                 	db	159
  7130                           
  7131                           ;Config register CONFIG6 @ 0x300005
  7132                           ;	WDT Window Select bits
  7133                           ;	WDTCWS = WDTCWS_7, window always open (100%); software control; keyed access not requi
      +                          red
  7134                           ;	WDT input clock selector
  7135                           ;	WDTCCS = SC, Software Control
  7136   300005                     	org	3145733
  7137   300005  FF                 	db	255
  7138                           
  7139                           ;Config register CONFIG7 @ 0x300006
  7140                           ;	Boot Block Size selection bits
  7141                           ;	BBSIZE = BBSIZE_512, Boot Block size is 512 words
  7142                           ;	Boot Block enable bit
  7143                           ;	BBEN = OFF, Boot block disabled
  7144                           ;	Storage Area Flash enable bit
  7145                           ;	SAFEN = OFF, SAF disabled
  7146                           ;	Background Debugger
  7147                           ;	DEBUG = OFF, Background Debugger disabled
  7148   300006                     	org	3145734
  7149   300006  FF                 	db	255
  7150                           
  7151                           ;Config register CONFIG8 @ 0x300007
  7152                           ;	Boot Block Write Protection bit
  7153                           ;	WRTB = OFF, Boot Block not Write protected
  7154                           ;	Configuration Register Write Protection bit
  7155                           ;	WRTC = OFF, Configuration registers not Write protected
  7156                           ;	Data EEPROM Write Protection bit
  7157                           ;	WRTD = OFF, Data EEPROM not Write protected
  7158                           ;	SAF Write protection bit
  7159                           ;	WRTSAF = OFF, SAF not Write Protected
  7160                           ;	Application Block write protection bit
  7161                           ;	WRTAPP = OFF, Application Block not write protected
  7162   300007                     	org	3145735
  7163   300007  FF                 	db	255
  7164                           
  7165                           ;Config register CONFIG10 @ 0x300009
  7166                           ;	PFM and Data EEPROM Code Protection bit
  7167                           ;	CP = OFF, PFM and Data EEPROM code protection disabled
  7168   300009                     	org	3145737
  7169   300009  FF                 	db	255
  7170                           tosu	equ	0x4FF
  7171                           tosh	equ	0x4FE
  7172                           tosl	equ	0x4FD
  7173                           stkptr	equ	0x4FC
  7174                           pclatu	equ	0x4FB
  7175                           pclath	equ	0x4FA
  7176                           pcl	equ	0x4F9
  7177                           tblptru	equ	0x4F8
  7178                           tblptrh	equ	0x4F7
  7179                           tblptrl	equ	0x4F6
  7180                           tablat	equ	0x4F5
  7181                           prodh	equ	0x4F4
  7182                           prodl	equ	0x4F3
  7183                           indf0	equ	0x4EF
  7184                           postinc0	equ	0x4EE
  7185                           postdec0	equ	0x4ED
  7186                           preinc0	equ	0x4EC
  7187                           plusw0	equ	0x4EB
  7188                           fsr0h	equ	0x4EA
  7189                           fsr0l	equ	0x4E9
  7190                           wreg	equ	0x4E8
  7191                           indf1	equ	0x4E7
  7192                           postinc1	equ	0x4E6
  7193                           postdec1	equ	0x4E5
  7194                           preinc1	equ	0x4E4
  7195                           plusw1	equ	0x4E3
  7196                           fsr1h	equ	0x4E2
  7197                           fsr1l	equ	0x4E1
  7198                           bsr	equ	0x4E0
  7199                           indf2	equ	0x4DF
  7200                           postinc2	equ	0x4DE
  7201                           postdec2	equ	0x4DD
  7202                           preinc2	equ	0x4DC
  7203                           plusw2	equ	0x4DB
  7204                           fsr2h	equ	0x4DA
  7205                           fsr2l	equ	0x4D9
  7206                           status	equ	0x4D8

Data Sizes:
    Strings     47
    Constant    57
    Data        2
    BSS         81
    Persistent  9
    Stack       0

Auto Spaces:
    Space          Size  Autos    Used
    COMRAM           95     37      94
    BANK5           160      0      35
    BANK6           256      0       0
    BANK7           256      0       0
    BANK8           256      0       0
    BANK9           256      0       0
    BANK10          256      0       0
    BANK11          256      0       0
    BANK12          256      0       0
    BANK13          256      0       0
    BANK14          256      0       0
    BANK15          256      0       0
    BANK16          256      0       0
    BANK17          256      0       0
    BANK18          256      0       0
    BANK19          256      0       0
    BANK20          256      0       0
    BANK21          256      0       0
    BANK22          256      0       0
    BANK23          256      0       0
    BANK24          256      0       0
    BANK25          256      0       0
    BANK26          256      0       0
    BANK27          256      0       0
    BANK28          256      0       0
    BANK29          256      0       0
    BANK30          256      0       0
    BANK31          256      0       0
    BANK32          256      0       0
    BANK33          256      0       0
    BANK34          256      0       0
    BANK35          256      0       0
    BANK36          256      0       0

Pointer List with Targets:

    I2C1_Read1ByteRegister@returnValue.data	PTR unsigned char  size(2) Largest target is 0

    I2C1_Read2ByteRegister@returnValue.data	PTR unsigned char  size(2) Largest target is 0

    I2C1_Write@data.data	PTR unsigned char  size(2) Largest target is 0

    I2C1_Write1ByteRegister@data.data	PTR unsigned char  size(2) Largest target is 0

    I2C1_Write2ByteRegister@data.data	PTR unsigned char  size(2) Largest target is 0

    I2C1_DO_TX$2641$0	PTR void  size(2) Largest target is 5
		 -> I2C1_ReadDataBlock@bufferBlock(COMRAM[4]), I2C1_Write2ByteRegister@data(COMRAM[2]), I2C1_Write1ByteRegister@data(COMRAM[1]), I2C1_Write@data(COMRAM[1]), 
		 -> I2C1_Read2ByteRegister@returnValue(COMRAM[2]), NULL(NULL[0]), I2C1_Read1ByteRegister@returnValue(COMRAM[1]), 

    I2C1_DO_TX_EMPTY$2647$0	PTR void  size(2) Largest target is 5
		 -> I2C1_ReadDataBlock@bufferBlock(COMRAM[4]), I2C1_Write2ByteRegister@data(COMRAM[2]), I2C1_Write1ByteRegister@data(COMRAM[1]), I2C1_Write@data(COMRAM[1]), 
		 -> I2C1_Read2ByteRegister@returnValue(COMRAM[2]), NULL(NULL[0]), I2C1_Read1ByteRegister@returnValue(COMRAM[1]), 

    I2C1_DO_RX_EMPTY$2653$0	PTR void  size(2) Largest target is 5
		 -> I2C1_ReadDataBlock@bufferBlock(COMRAM[4]), I2C1_Write2ByteRegister@data(COMRAM[2]), I2C1_Write1ByteRegister@data(COMRAM[1]), I2C1_Write@data(COMRAM[1]), 
		 -> I2C1_Read2ByteRegister@returnValue(COMRAM[2]), NULL(NULL[0]), I2C1_Read1ByteRegister@returnValue(COMRAM[1]), 

    I2C1_DO_RX_EMPTY$2658	PTR void  size(2) Largest target is 5
		 -> I2C1_ReadDataBlock@bufferBlock(COMRAM[4]), I2C1_Write2ByteRegister@data(COMRAM[2]), I2C1_Write1ByteRegister@data(COMRAM[1]), I2C1_Write@data(COMRAM[1]), 
		 -> I2C1_Read2ByteRegister@returnValue(COMRAM[2]), NULL(NULL[0]), I2C1_Read1ByteRegister@returnValue(COMRAM[1]), 

    I2C1_DO_RX_EMPTY$2653	PTR FTN(PTR void ,)enum E363 size(3) Largest target is 1
		 -> I2C1_CallbackReturnReset(), I2C1_CallbackReturnStop(), NULL(), rdBlkRegCompleteHandler(), 
		 -> wr2RegCompleteHandler(), wr1RegCompleteHandler(), rd2RegCompleteHandler(), rd1RegCompleteHandler(), 

    I2C1_DO_TX_EMPTY$2652	PTR void  size(2) Largest target is 5
		 -> I2C1_ReadDataBlock@bufferBlock(COMRAM[4]), I2C1_Write2ByteRegister@data(COMRAM[2]), I2C1_Write1ByteRegister@data(COMRAM[1]), I2C1_Write@data(COMRAM[1]), 
		 -> I2C1_Read2ByteRegister@returnValue(COMRAM[2]), NULL(NULL[0]), I2C1_Read1ByteRegister@returnValue(COMRAM[1]), 

    I2C1_DO_TX_EMPTY$2647	PTR FTN(PTR void ,)enum E363 size(3) Largest target is 1
		 -> I2C1_CallbackReturnReset(), I2C1_CallbackReturnStop(), NULL(), rdBlkRegCompleteHandler(), 
		 -> wr2RegCompleteHandler(), wr1RegCompleteHandler(), rd2RegCompleteHandler(), rd1RegCompleteHandler(), 

    I2C1_DO_TX$2646	PTR void  size(2) Largest target is 5
		 -> I2C1_ReadDataBlock@bufferBlock(COMRAM[4]), I2C1_Write2ByteRegister@data(COMRAM[2]), I2C1_Write1ByteRegister@data(COMRAM[1]), I2C1_Write@data(COMRAM[1]), 
		 -> I2C1_Read2ByteRegister@returnValue(COMRAM[2]), NULL(NULL[0]), I2C1_Read1ByteRegister@returnValue(COMRAM[1]), 

    I2C1_DO_TX$2641	PTR FTN(PTR void ,)enum E363 size(3) Largest target is 1
		 -> I2C1_CallbackReturnReset(), I2C1_CallbackReturnStop(), NULL(), rdBlkRegCompleteHandler(), 
		 -> wr2RegCompleteHandler(), wr1RegCompleteHandler(), rd2RegCompleteHandler(), rd1RegCompleteHandler(), 

    I2C1_MasterFsm$2640	const PTR FTN()enum E17495 size(3) Largest target is 1
		 -> I2C1_DO_BUS_ERROR(), I2C1_DO_BUS_COLLISION(), I2C1_DO_ADDRESS_NACK(), I2C1_DO_RESET(), 
		 -> I2C1_DO_RX_NACK_RESTART(), I2C1_DO_RX_NACK_STOP(), I2C1_DO_TX_ACK(), I2C1_DO_RX_ACK(), 
		 -> I2C1_DO_SEND_STOP(), I2C1_DO_SEND_RESTART(), I2C1_DO_SEND_RESTART_WRITE(), I2C1_DO_SEND_RESTART_READ(), 
		 -> I2C1_DO_RX_EMPTY(), I2C1_DO_TX_EMPTY(), I2C1_DO_RX(), I2C1_DO_TX(), 
		 -> I2C1_DO_SEND_ADR_WRITE(), I2C1_DO_SEND_ADR_READ(), I2C1_DO_IDLE(), 

    I2C1_CallbackReturnStop@funPtr	PTR void  size(2) Largest target is 5
		 -> I2C1_ReadDataBlock@bufferBlock(COMRAM[4]), I2C1_Write2ByteRegister@data(COMRAM[2]), I2C1_Write1ByteRegister@data(COMRAM[1]), I2C1_Write@data(COMRAM[1]), 
		 -> I2C1_Read2ByteRegister@returnValue(COMRAM[2]), NULL(NULL[0]), I2C1_Read1ByteRegister@returnValue(COMRAM[1]), 

    I2C1_CallbackReturnReset@funPtr	PTR void  size(2) Largest target is 5
		 -> I2C1_ReadDataBlock@bufferBlock(COMRAM[4]), I2C1_Write2ByteRegister@data(COMRAM[2]), I2C1_Write1ByteRegister@data(COMRAM[1]), I2C1_Write@data(COMRAM[1]), 
		 -> I2C1_Read2ByteRegister@returnValue(COMRAM[2]), NULL(NULL[0]), I2C1_Read1ByteRegister@returnValue(COMRAM[1]), 

    cb$0	PTR void  size(2) Largest target is 5
		 -> I2C1_ReadDataBlock@bufferBlock(COMRAM[4]), I2C1_Write2ByteRegister@data(COMRAM[2]), I2C1_Write1ByteRegister@data(COMRAM[1]), I2C1_Write@data(COMRAM[1]), 
		 -> I2C1_Read2ByteRegister@returnValue(COMRAM[2]), NULL(NULL[0]), I2C1_Read1ByteRegister@returnValue(COMRAM[1]), 

    NULL$0	PTR void  size(2) Largest target is 5
		 -> I2C1_ReadDataBlock@bufferBlock(COMRAM[4]), I2C1_Write2ByteRegister@data(COMRAM[2]), I2C1_Write1ByteRegister@data(COMRAM[1]), I2C1_Write@data(COMRAM[1]), 
		 -> I2C1_Read2ByteRegister@returnValue(COMRAM[2]), NULL(NULL[0]), I2C1_Read1ByteRegister@returnValue(COMRAM[1]), 

    cb$0	PTR void  size(2) Largest target is 5
		 -> I2C1_ReadDataBlock@bufferBlock(COMRAM[4]), I2C1_Write2ByteRegister@data(COMRAM[2]), I2C1_Write1ByteRegister@data(COMRAM[1]), I2C1_Write@data(COMRAM[1]), 
		 -> I2C1_Read2ByteRegister@returnValue(COMRAM[2]), NULL(NULL[0]), I2C1_Read1ByteRegister@returnValue(COMRAM[1]), 

    vfpfcnvrt@ap	PTR PTR void  size(2) Largest target is 2
		 -> printf@ap(COMRAM[2]), 

    S870$0$0	PTR void  size(2) Largest target is 5
		 -> I2C1_ReadDataBlock@bufferBlock(COMRAM[4]), I2C1_Write2ByteRegister@data(COMRAM[2]), I2C1_Write1ByteRegister@data(COMRAM[1]), I2C1_Write@data(COMRAM[1]), 
		 -> I2C1_Read2ByteRegister@returnValue(COMRAM[2]), NULL(NULL[0]), I2C1_Read1ByteRegister@returnValue(COMRAM[1]), 

    S2188$source	PTR const unsigned char  size(2) Largest target is 0

    fputc@fp...source	PTR const unsigned char  size(2) Largest target is 0

    S2188$buffer	PTR unsigned char  size(2) Largest target is 0

    fputc@fp...buffer	PTR unsigned char  size(2) Largest target is 0

    fputc@fp	PTR struct _IO_FILE size(2) Largest target is 0
		 -> NULL(NULL[0]), 

    vfprintf@ap	PTR PTR void  size(2) Largest target is 2
		 -> printf@ap(COMRAM[2]), 

    vfprintf@fp	PTR struct _IO_FILE size(2) Largest target is 0
		 -> NULL(NULL[0]), 

    vfprintf@fmt	PTR const unsigned char  size(2) Largest target is 29
		 -> STR_2(CODE[18]), STR_1(CODE[29]), 

    vfprintf@cfmt	PTR unsigned char  size(2) Largest target is 29
		 -> STR_2(CODE[18]), STR_1(CODE[29]), 

    vfpfcnvrt@fp	PTR struct _IO_FILE size(2) Largest target is 0
		 -> NULL(NULL[0]), 

    vfpfcnvrt@fmt	PTR PTR unsigned char  size(2) Largest target is 2
		 -> vfprintf@cfmt(COMRAM[2]), 

    S2222$vp	PTR void  size(2) Largest target is 0

    convarg.vp	PTR void  size(2) Largest target is 0

    printf@fmt	PTR const unsigned char  size(2) Largest target is 29
		 -> STR_2(CODE[18]), STR_1(CODE[29]), 

    printf@ap	PTR void [1] size(2) Largest target is 2
		 -> ?_printf(COMRAM[2]), 

    I2C1_SetCallback@ptr	PTR void  size(2) Largest target is 5
		 -> I2C1_ReadDataBlock@bufferBlock(COMRAM[4]), I2C1_Write2ByteRegister@data(COMRAM[2]), I2C1_Write1ByteRegister@data(COMRAM[1]), I2C1_Write@data(COMRAM[1]), 
		 -> I2C1_Read2ByteRegister@returnValue(COMRAM[2]), NULL(NULL[0]), I2C1_Read1ByteRegister@returnValue(COMRAM[1]), 

    I2C1_SetCallback@cb	PTR FTN(PTR void ,)enum E363 size(3) Largest target is 1
		 -> NULL(), rdBlkRegCompleteHandler(), wr2RegCompleteHandler(), wr1RegCompleteHandler(), 
		 -> rd2RegCompleteHandler(), rd1RegCompleteHandler(), 

    I2C1_SetAddressNackCallback@ptr	PTR void  size(2) Largest target is 0
		 -> NULL(NULL[0]), 

    I2C1_SetAddressNackCallback@cb	PTR FTN(PTR void ,)enum E363 size(3) Largest target is 1
		 -> NULL(), 

    I2C1_SetDataCompleteCallback@ptr	PTR void  size(2) Largest target is 5
		 -> I2C1_ReadDataBlock@bufferBlock(COMRAM[4]), I2C1_Write2ByteRegister@data(COMRAM[2]), I2C1_Write1ByteRegister@data(COMRAM[1]), I2C1_Write@data(COMRAM[1]), 
		 -> I2C1_Read2ByteRegister@returnValue(COMRAM[2]), NULL(NULL[0]), I2C1_Read1ByteRegister@returnValue(COMRAM[1]), 

    I2C1_SetDataCompleteCallback@cb	PTR FTN(PTR void ,)enum E363 size(3) Largest target is 1
		 -> NULL(), rdBlkRegCompleteHandler(), wr2RegCompleteHandler(), wr1RegCompleteHandler(), 
		 -> rd2RegCompleteHandler(), rd1RegCompleteHandler(), 

    I2C1_SetBuffer@buffer	PTR void  size(2) Largest target is 5
		 -> I2C1_Read1ByteRegister@returnValue.data(COMRAM[3]), I2C1_Read2ByteRegister@returnValue.data(COMRAM[3]), I2C1_Write@data.data(COMRAM[3]), I2C1_Write1ByteRegister@data.data(COMRAM[3]), 
		 -> I2C1_Write2ByteRegister@data.data(COMRAM[3]), I2C1_ReadDataBlock@reg(COMRAM[1]), I2C1_ReadDataBlock@bufferBlock(COMRAM[4]), bufferBlock.data(COMRAM[3]), 
		 -> I2C1_Write2ByteRegister@reg(COMRAM[1]), I2C1_Write2ByteRegister@data(COMRAM[2]), I2C1_Write1ByteRegister@reg(COMRAM[1]), I2C1_Write1ByteRegister@data(COMRAM[1]), 
		 -> I2C1_Write@data(COMRAM[1]), I2C1_Read2ByteRegister@reg(COMRAM[1]), I2C1_Read2ByteRegister@returnValue(COMRAM[2]), NULL(NULL[0]), 
		 -> I2C1_Read1ByteRegister@reg(COMRAM[1]), I2C1_Read1ByteRegister@returnValue(COMRAM[1]), 

    S870$data_ptr	PTR unsigned char  size(2) Largest target is 5
		 -> I2C1_ReadDataBlock@reg(COMRAM[1]), I2C1_ReadDataBlock@bufferBlock(COMRAM[4]), I2C1_Write2ByteRegister@reg(COMRAM[1]), I2C1_Write2ByteRegister@data(COMRAM[2]), 
		 -> I2C1_Write1ByteRegister@reg(COMRAM[1]), I2C1_Write1ByteRegister@data(COMRAM[1]), I2C1_Write@data(COMRAM[1]), I2C1_Read2ByteRegister@reg(COMRAM[1]), 
		 -> I2C1_Read2ByteRegister@returnValue(COMRAM[2]), NULL(NULL[0]), I2C1_Read1ByteRegister@reg(COMRAM[1]), I2C1_Read1ByteRegister@returnValue(COMRAM[1]), 

    I2C1_Status.data_ptr	PTR unsigned char  size(2) Largest target is 5
		 -> I2C1_Read1ByteRegister@returnValue.data(COMRAM[3]), I2C1_Read2ByteRegister@returnValue.data(COMRAM[3]), I2C1_Write@data.data(COMRAM[3]), I2C1_Write1ByteRegister@data.data(COMRAM[3]), 
		 -> I2C1_Write2ByteRegister@data.data(COMRAM[3]), I2C1_ReadDataBlock@reg(COMRAM[1]), I2C1_ReadDataBlock@bufferBlock(COMRAM[4]), bufferBlock.data(COMRAM[3]), 
		 -> I2C1_Write2ByteRegister@reg(COMRAM[1]), I2C1_Write2ByteRegister@data(COMRAM[2]), I2C1_Write1ByteRegister@reg(COMRAM[1]), I2C1_Write1ByteRegister@data(COMRAM[1]), 
		 -> I2C1_Write@data(COMRAM[1]), I2C1_Read2ByteRegister@reg(COMRAM[1]), I2C1_Read2ByteRegister@returnValue(COMRAM[2]), NULL(NULL[0]), 
		 -> I2C1_Read1ByteRegister@reg(COMRAM[1]), I2C1_Read1ByteRegister@returnValue(COMRAM[1]), 

    S870$callbackPayload	PTR void [6] size(2) Largest target is 5
		 -> I2C1_ReadDataBlock@bufferBlock(COMRAM[4]), I2C1_Write2ByteRegister@data(COMRAM[2]), I2C1_Write1ByteRegister@data(COMRAM[1]), I2C1_Write@data(COMRAM[1]), 
		 -> I2C1_Read2ByteRegister@returnValue(COMRAM[2]), NULL(NULL[0]), I2C1_Read1ByteRegister@returnValue(COMRAM[1]), 

    I2C1_Status.callbackPayload	PTR void [6] size(2) Largest target is 5
		 -> I2C1_ReadDataBlock@bufferBlock(COMRAM[4]), I2C1_Write2ByteRegister@data(COMRAM[2]), I2C1_Write1ByteRegister@data(COMRAM[1]), I2C1_Write@data(COMRAM[1]), 
		 -> I2C1_Read2ByteRegister@returnValue(COMRAM[2]), NULL(NULL[0]), I2C1_Read1ByteRegister@returnValue(COMRAM[1]), 

    S870$callbackTable	PTR FTN(PTR void ,)enum E363[6] size(3) Largest target is 1
		 -> I2C1_CallbackReturnReset(), I2C1_CallbackReturnStop(), NULL(), rdBlkRegCompleteHandler(), 
		 -> wr2RegCompleteHandler(), wr1RegCompleteHandler(), rd2RegCompleteHandler(), rd1RegCompleteHandler(), 

    I2C1_Status.callbackTable	PTR FTN(PTR void ,)enum E363[6] size(3) Largest target is 1
		 -> I2C1_CallbackReturnReset(), I2C1_CallbackReturnStop(), NULL(), rdBlkRegCompleteHandler(), 
		 -> wr2RegCompleteHandler(), wr1RegCompleteHandler(), rd2RegCompleteHandler(), rd1RegCompleteHandler(), 

    i2c1_fsmStateTable	const PTR FTN()enum E17495[19] size(3) Largest target is 1
		 -> I2C1_DO_BUS_ERROR(), I2C1_DO_BUS_COLLISION(), I2C1_DO_ADDRESS_NACK(), I2C1_DO_RESET(), 
		 -> I2C1_DO_RX_NACK_RESTART(), I2C1_DO_RX_NACK_STOP(), I2C1_DO_TX_ACK(), I2C1_DO_RX_ACK(), 
		 -> I2C1_DO_SEND_STOP(), I2C1_DO_SEND_RESTART(), I2C1_DO_SEND_RESTART_WRITE(), I2C1_DO_SEND_RESTART_READ(), 
		 -> I2C1_DO_RX_EMPTY(), I2C1_DO_TX_EMPTY(), I2C1_DO_RX(), I2C1_DO_TX(), 
		 -> I2C1_DO_SEND_ADR_WRITE(), I2C1_DO_SEND_ADR_READ(), I2C1_DO_IDLE(), 

    UART1_SetErrorHandler@interruptHandler	PTR FTN()void  size(3) Largest target is 1
		 -> UART1_DefaultErrorHandler(), 

    UART1_SetOverrunErrorHandler@interruptHandler	PTR FTN()void  size(3) Largest target is 1
		 -> UART1_DefaultOverrunErrorHandler(), 

    UART1_SetFramingErrorHandler@interruptHandler	PTR FTN()void  size(3) Largest target is 1
		 -> UART1_DefaultFramingErrorHandler(), 

    UART1_ErrorHandler	PTR FTN()void  size(3) Largest target is 1
		 -> NULL(), UART1_DefaultErrorHandler(), 

    UART1_OverrunErrorHandler	PTR FTN()void  size(3) Largest target is 1
		 -> NULL(), UART1_DefaultOverrunErrorHandler(), 

    UART1_FramingErrorHandler	PTR FTN()void  size(3) Largest target is 1
		 -> NULL(), UART1_DefaultFramingErrorHandler(), 

    rdBlkRegCompleteHandler@ptr.data	PTR unsigned char  size(2) Largest target is 0

    rdBlkRegCompleteHandler@ptr	PTR void  size(2) Largest target is 5
		 -> I2C1_ReadDataBlock@bufferBlock(COMRAM[4]), I2C1_Write2ByteRegister@data(COMRAM[2]), I2C1_Write1ByteRegister@data(COMRAM[1]), I2C1_Write@data(COMRAM[1]), 
		 -> I2C1_Read2ByteRegister@returnValue(COMRAM[2]), NULL(NULL[0]), I2C1_Read1ByteRegister@returnValue(COMRAM[1]), 

    wr2RegCompleteHandler@ptr	PTR void  size(2) Largest target is 5
		 -> I2C1_ReadDataBlock@bufferBlock(COMRAM[4]), I2C1_Write2ByteRegister@data(COMRAM[2]), I2C1_Write1ByteRegister@data(COMRAM[1]), I2C1_Write@data(COMRAM[1]), 
		 -> I2C1_Read2ByteRegister@returnValue(COMRAM[2]), NULL(NULL[0]), I2C1_Read1ByteRegister@returnValue(COMRAM[1]), 

    wr1RegCompleteHandler@ptr	PTR void  size(2) Largest target is 5
		 -> I2C1_ReadDataBlock@bufferBlock(COMRAM[4]), I2C1_Write2ByteRegister@data(COMRAM[2]), I2C1_Write1ByteRegister@data(COMRAM[1]), I2C1_Write@data(COMRAM[1]), 
		 -> I2C1_Read2ByteRegister@returnValue(COMRAM[2]), NULL(NULL[0]), I2C1_Read1ByteRegister@returnValue(COMRAM[1]), 

    rd2RegCompleteHandler@ptr	PTR void  size(2) Largest target is 5
		 -> I2C1_ReadDataBlock@bufferBlock(COMRAM[4]), I2C1_Write2ByteRegister@data(COMRAM[2]), I2C1_Write1ByteRegister@data(COMRAM[1]), I2C1_Write@data(COMRAM[1]), 
		 -> I2C1_Read2ByteRegister@returnValue(COMRAM[2]), NULL(NULL[0]), I2C1_Read1ByteRegister@returnValue(COMRAM[1]), 

    rd1RegCompleteHandler@ptr	PTR void  size(2) Largest target is 5
		 -> I2C1_ReadDataBlock@bufferBlock(COMRAM[4]), I2C1_Write2ByteRegister@data(COMRAM[2]), I2C1_Write1ByteRegister@data(COMRAM[1]), I2C1_Write@data(COMRAM[1]), 
		 -> I2C1_Read2ByteRegister@returnValue(COMRAM[2]), NULL(NULL[0]), I2C1_Read1ByteRegister@returnValue(COMRAM[1]), 

    S97$data	PTR unsigned char  size(2) Largest target is 0

    bufferBlock.data	PTR unsigned char  size(2) Largest target is 0


Critical Paths under _main in COMRAM

    _main->_I2C_LCD_Init
    _printf->_vfprintf
    _vfprintf->_vfpfcnvrt
    _vfpfcnvrt->_fputc
    _fputc->_putch
    _putch->_UART1_Write
    _UART1_Initialize->_UART1_SetErrorHandler
    _UART1_Initialize->_UART1_SetFramingErrorHandler
    _UART1_Initialize->_UART1_SetOverrunErrorHandler
    _I2C_LCD_Init->_I2C_LCD_Cmd
    _I2C_LCD_Cmd->_sendCMD
    _sendCMD->_loadPCF
    _loadPCF->_PCF_Wr
    _PCF_Wr->_I2C1_Write
    _I2C1_SetAddressNackCallback->_I2C1_SetCallback
    _I2C1_MasterWrite->_I2C1_MasterOperation
    _I2C1_MasterFsm->_I2C1_DO_TX
    _I2C1_DO_TX->_I2C1_CallbackReturnReset
    _I2C1_DO_TX->_I2C1_CallbackReturnStop
    _I2C1_DO_TX->_rd1RegCompleteHandler
    _I2C1_DO_TX->_rd2RegCompleteHandler
    _I2C1_DO_TX->_rdBlkRegCompleteHandler
    _I2C1_DO_TX->_wr1RegCompleteHandler
    _I2C1_DO_TX->_wr2RegCompleteHandler
    _I2C1_DO_TX_EMPTY->_I2C1_CallbackReturnReset
    _I2C1_DO_TX_EMPTY->_I2C1_CallbackReturnStop
    _I2C1_DO_TX_EMPTY->_rd1RegCompleteHandler
    _I2C1_DO_TX_EMPTY->_rd2RegCompleteHandler
    _I2C1_DO_TX_EMPTY->_rdBlkRegCompleteHandler
    _I2C1_DO_TX_EMPTY->_wr1RegCompleteHandler
    _I2C1_DO_TX_EMPTY->_wr2RegCompleteHandler
    _I2C1_DO_SEND_STOP->_I2C1_MasterSendTxData
    _I2C1_DO_SEND_STOP->_I2C1_MasterSetCounter
    _I2C1_DO_RX->_I2C1_DO_RX_EMPTY
    _I2C1_DO_BUS_COLLISION->_I2C1_CallbackReturnReset
    _I2C1_DO_BUS_COLLISION->_I2C1_CallbackReturnStop
    _I2C1_DO_BUS_COLLISION->_rd1RegCompleteHandler
    _I2C1_DO_BUS_COLLISION->_rd2RegCompleteHandler
    _I2C1_DO_BUS_COLLISION->_rdBlkRegCompleteHandler
    _I2C1_DO_BUS_COLLISION->_wr1RegCompleteHandler
    _I2C1_DO_BUS_COLLISION->_wr2RegCompleteHandler
    _I2C1_DO_SEND_RESTART_READ->_I2C1_MasterSetCounter
    _I2C1_DO_RX_EMPTY->_I2C1_CallbackReturnReset
    _I2C1_DO_RX_EMPTY->_I2C1_CallbackReturnStop
    _I2C1_DO_RX_EMPTY->_rd1RegCompleteHandler
    _I2C1_DO_RX_EMPTY->_rd2RegCompleteHandler
    _I2C1_DO_RX_EMPTY->_rdBlkRegCompleteHandler
    _I2C1_DO_RX_EMPTY->_wr1RegCompleteHandler
    _I2C1_DO_RX_EMPTY->_wr2RegCompleteHandler
    _I2C1_DO_ADDRESS_NACK->_I2C1_CallbackReturnReset
    _I2C1_DO_ADDRESS_NACK->_I2C1_CallbackReturnStop
    _I2C1_DO_ADDRESS_NACK->_rd1RegCompleteHandler
    _I2C1_DO_ADDRESS_NACK->_rd2RegCompleteHandler
    _I2C1_DO_ADDRESS_NACK->_rdBlkRegCompleteHandler
    _I2C1_DO_ADDRESS_NACK->_wr1RegCompleteHandler
    _I2C1_DO_ADDRESS_NACK->_wr2RegCompleteHandler
    _wr2RegCompleteHandler->_I2C1_SetDataCompleteCallback
    _wr1RegCompleteHandler->_I2C1_SetDataCompleteCallback
    _rdBlkRegCompleteHandler->_I2C1_SetDataCompleteCallback
    _rd2RegCompleteHandler->_I2C1_SetDataCompleteCallback
    _rd1RegCompleteHandler->_I2C1_SetDataCompleteCallback
    _I2C1_SetDataCompleteCallback->_I2C1_SetCallback

Critical Paths under _main in BANK5

    None.

Critical Paths under _main in BANK6

    None.

Critical Paths under _main in BANK7

    None.

Critical Paths under _main in BANK8

    None.

Critical Paths under _main in BANK9

    None.

Critical Paths under _main in BANK10

    None.

Critical Paths under _main in BANK11

    None.

Critical Paths under _main in BANK12

    None.

Critical Paths under _main in BANK13

    None.

Critical Paths under _main in BANK14

    None.

Critical Paths under _main in BANK15

    None.

Critical Paths under _main in BANK16

    None.

Critical Paths under _main in BANK17

    None.

Critical Paths under _main in BANK18

    None.

Critical Paths under _main in BANK19

    None.

Critical Paths under _main in BANK20

    None.

Critical Paths under _main in BANK21

    None.

Critical Paths under _main in BANK22

    None.

Critical Paths under _main in BANK23

    None.

Critical Paths under _main in BANK24

    None.

Critical Paths under _main in BANK25

    None.

Critical Paths under _main in BANK26

    None.

Critical Paths under _main in BANK27

    None.

Critical Paths under _main in BANK28

    None.

Critical Paths under _main in BANK29

    None.

Critical Paths under _main in BANK30

    None.

Critical Paths under _main in BANK31

    None.

Critical Paths under _main in BANK32

    None.

Critical Paths under _main in BANK33

    None.

Critical Paths under _main in BANK34

    None.

Critical Paths under _main in BANK35

    None.

Critical Paths under _main in BANK36

    None.

Call Graph Tables:

 ---------------------------------------------------------------------------------
 (Depth) Function   	        Calls       Base Space   Used Autos Params    Refs
 ---------------------------------------------------------------------------------
 (0) _main                                                 2     2      0  876798
                                             35 COMRAM     2     2      0
                       _I2C_LCD_Init
                  _SYSTEM_Initialize
                             _printf
 ---------------------------------------------------------------------------------
 (1) _printf                                               6     4      2    1571
                                             25 COMRAM     4     2      2
                           _vfprintf
 ---------------------------------------------------------------------------------
 (2) _vfprintf                                             8     2      6    1367
                                             17 COMRAM     8     2      6
                          _vfpfcnvrt
 ---------------------------------------------------------------------------------
 (3) _vfpfcnvrt                                           18    12      6    1020
                                             11 COMRAM     6     0      6
                              _fputc
 ---------------------------------------------------------------------------------
 (4) _fputc                                                9     5      4     660
                                              2 COMRAM     9     5      4
                              _putch
 ---------------------------------------------------------------------------------
 (5) _putch                                                1     1      0      30
                                              1 COMRAM     1     1      0
                        _UART1_Write
 ---------------------------------------------------------------------------------
 (6) _UART1_Write                                          1     1      0      15
                                              0 COMRAM     1     1      0
 ---------------------------------------------------------------------------------
 (1) _SYSTEM_Initialize                                    0     0      0     294
                    _ADCC_Initialize
                    _I2C1_Initialize
              _OSCILLATOR_Initialize
             _PIN_MANAGER_Initialize
                     _PMD_Initialize
                   _UART1_Initialize
 ---------------------------------------------------------------------------------
 (2) _UART1_Initialize                                     0     0      0     294
              _UART1_SetErrorHandler
       _UART1_SetFramingErrorHandler
       _UART1_SetOverrunErrorHandler
 ---------------------------------------------------------------------------------
 (3) _UART1_SetOverrunErrorHandler                         3     0      3      98
                                              0 COMRAM     3     0      3
 ---------------------------------------------------------------------------------
 (3) _UART1_SetFramingErrorHandler                         3     0      3      98
                                              0 COMRAM     3     0      3
 ---------------------------------------------------------------------------------
 (3) _UART1_SetErrorHandler                                3     0      3      98
                                              0 COMRAM     3     0      3
 ---------------------------------------------------------------------------------
 (2) _PMD_Initialize                                       0     0      0       0
 ---------------------------------------------------------------------------------
 (2) _PIN_MANAGER_Initialize                               0     0      0       0
 ---------------------------------------------------------------------------------
 (2) _OSCILLATOR_Initialize                                0     0      0       0
 ---------------------------------------------------------------------------------
 (2) _I2C1_Initialize                                      0     0      0       0
 ---------------------------------------------------------------------------------
 (2) _ADCC_Initialize                                      0     0      0       0
 ---------------------------------------------------------------------------------
 (1) _I2C_LCD_Init                                         2     2      0  874933
                                             33 COMRAM     2     2      0
                        _I2C_LCD_Cmd
                             _PCF_Wr
                            _sendCMD
 ---------------------------------------------------------------------------------
 (2) _I2C_LCD_Cmd                                          1     1      0  291821
                                             32 COMRAM     1     1      0
                            _sendCMD
 ---------------------------------------------------------------------------------
 (2) _sendCMD                                              4     4      0  291799
                                             28 COMRAM     4     4      0
                            _loadPCF
 ---------------------------------------------------------------------------------
 (3) _loadPCF                                              4     3      1  291709
                                             24 COMRAM     4     3      1
                             _PCF_Wr
 ---------------------------------------------------------------------------------
 (4) _PCF_Wr                                               1     1      0  291313
                                             23 COMRAM     1     1      0
                         _I2C1_Write
 ---------------------------------------------------------------------------------
 (5) _I2C1_Write                                           2     1      1  291291
                                             21 COMRAM     2     1      1
                         _I2C1_Close
                   _I2C1_MasterWrite
                          _I2C1_Open
        _I2C1_SetAddressNackCallback
                     _I2C1_SetBuffer
       _I2C1_SetDataCompleteCallback
 ---------------------------------------------------------------------------------
 (6) _I2C1_SetAddressNackCallback                          5     0      5    2022
                                              6 COMRAM     5     0      5
                   _I2C1_SetCallback
 ---------------------------------------------------------------------------------
 (6) _I2C1_Open                                            2     2      0      46
                                              0 COMRAM     2     2      0
                _I2C1_MasterClearIrq
                    _I2C1_MasterOpen
 ---------------------------------------------------------------------------------
 (7) _I2C1_MasterOpen                                      0     0      0       0
 ---------------------------------------------------------------------------------
 (6) _I2C1_MasterWrite                                     0     0      0  284409
               _I2C1_MasterOperation
 ---------------------------------------------------------------------------------
 (7) _I2C1_MasterOperation                                 2     2      0  284409
                                             19 COMRAM     2     2      0
              _I2C1_DO_SEND_ADR_READ
             _I2C1_DO_SEND_ADR_WRITE
              _I2C1_MasterSetCounter
                        _I2C1_Poller
 ---------------------------------------------------------------------------------
 (8) _I2C1_Poller                                          0     0      0  260628
                     _I2C1_MasterFsm
            _I2C1_MasterWaitForEvent
 ---------------------------------------------------------------------------------
 (9) _I2C1_MasterWaitForEvent                              0     0      0       0
 ---------------------------------------------------------------------------------
 (9) _I2C1_MasterFsm                                       0     0      0  260628
           _I2C1_ClearInterruptFlags
               _I2C1_DO_ADDRESS_NACK *
              _I2C1_DO_BUS_COLLISION *
                  _I2C1_DO_BUS_ERROR *
                       _I2C1_DO_IDLE *
                      _I2C1_DO_RESET *
                         _I2C1_DO_RX *
                     _I2C1_DO_RX_ACK *
                   _I2C1_DO_RX_EMPTY *
            _I2C1_DO_RX_NACK_RESTART *
               _I2C1_DO_RX_NACK_STOP *
              _I2C1_DO_SEND_ADR_READ *
             _I2C1_DO_SEND_ADR_WRITE *
               _I2C1_DO_SEND_RESTART *
          _I2C1_DO_SEND_RESTART_READ *
         _I2C1_DO_SEND_RESTART_WRITE *
                  _I2C1_DO_SEND_STOP *
                         _I2C1_DO_TX *
                     _I2C1_DO_TX_ACK *
                   _I2C1_DO_TX_EMPTY *
                  _I2C1_MasterIsNack
 ---------------------------------------------------------------------------------
 (10) _I2C1_DO_TX_ACK                                      0     0      0       0
                 _I2C1_MasterSendAck
 ---------------------------------------------------------------------------------
 (10) _I2C1_DO_TX                                          6     6      0   71121
                                             13 COMRAM     6     6      0
                                NULL *
           _I2C1_CallbackReturnReset *
            _I2C1_CallbackReturnStop *
          _I2C1_DO_SEND_RESTART_READ
         _I2C1_DO_SEND_RESTART_WRITE
                   _I2C1_DO_TX_EMPTY
                  _I2C1_MasterIsNack
            _I2C1_MasterIsTxBufEmpty
              _I2C1_MasterSendTxData
              _rd1RegCompleteHandler *
              _rd2RegCompleteHandler *
            _rdBlkRegCompleteHandler *
              _wr1RegCompleteHandler *
              _wr2RegCompleteHandler *
 ---------------------------------------------------------------------------------
 (11) _I2C1_MasterIsTxBufEmpty                             0     0      0       0
 ---------------------------------------------------------------------------------
 (10) _I2C1_MasterIsNack                                   0     0      0       0
 ---------------------------------------------------------------------------------
 (10) _I2C1_DO_TX_EMPTY                                    2     2      0   23669
                                             13 COMRAM     2     2      0
                                NULL *
           _I2C1_CallbackReturnReset *
            _I2C1_CallbackReturnStop *
          _I2C1_MasterDisableRestart
           _I2C1_MasterEnableRestart
              _I2C1_MasterSetCounter
              _rd1RegCompleteHandler *
              _rd2RegCompleteHandler *
            _rdBlkRegCompleteHandler *
              _wr1RegCompleteHandler *
              _wr2RegCompleteHandler *
 ---------------------------------------------------------------------------------
 (10) _I2C1_DO_SEND_STOP                                   0     0      0      44
              _I2C1_MasterGetCounter
              _I2C1_MasterSendTxData
              _I2C1_MasterSetCounter
                    _I2C1_MasterStop
 ---------------------------------------------------------------------------------
 (11) _I2C1_MasterGetCounter                               0     0      0       0
 ---------------------------------------------------------------------------------
 (10) _I2C1_DO_SEND_ADR_WRITE                              0     0      0      22
              _I2C1_MasterSendTxData
 ---------------------------------------------------------------------------------
 (10) _I2C1_DO_RX_NACK_STOP                                0     0      0       0
                       _I2C1_DO_IDLE
                _I2C1_MasterSendNack
                    _I2C1_MasterStop
 ---------------------------------------------------------------------------------
 (11) _I2C1_MasterStop                                     0     0      0       0
 ---------------------------------------------------------------------------------
 (11) _I2C1_DO_IDLE                                        0     0      0       0
 ---------------------------------------------------------------------------------
 (10) _I2C1_DO_RX_NACK_RESTART                             0     0      0       0
                _I2C1_MasterSendNack
 ---------------------------------------------------------------------------------
 (11) _I2C1_MasterSendNack                                 0     0      0       0
 ---------------------------------------------------------------------------------
 (10) _I2C1_DO_RX_ACK                                      0     0      0       0
                 _I2C1_MasterSendAck
 ---------------------------------------------------------------------------------
 (11) _I2C1_MasterSendAck                                  0     0      0       0
 ---------------------------------------------------------------------------------
 (10) _I2C1_DO_RX                                          3     3      0   23692
                                             15 COMRAM     3     3      0
                   _I2C1_DO_RX_EMPTY
               _I2C1_MasterGetRxData
             _I2C1_MasterIsRxBufFull
 ---------------------------------------------------------------------------------
 (11) _I2C1_MasterIsRxBufFull                              0     0      0       0
 ---------------------------------------------------------------------------------
 (11) _I2C1_MasterGetRxData                                0     0      0       0
 ---------------------------------------------------------------------------------
 (10) _I2C1_DO_BUS_ERROR                                   0     0      0       0
                _I2C1_MasterResetBus
 ---------------------------------------------------------------------------------
 (10) _I2C1_DO_BUS_COLLISION                               2     2      0   47360
                                             13 COMRAM     2     2      0
                                NULL *
           _I2C1_CallbackReturnReset *
            _I2C1_CallbackReturnStop *
                      _I2C1_DO_RESET
          _I2C1_DO_SEND_RESTART_READ
         _I2C1_DO_SEND_RESTART_WRITE
                _I2C1_MasterClearIrq
              _rd1RegCompleteHandler *
              _rd2RegCompleteHandler *
            _rdBlkRegCompleteHandler *
              _wr1RegCompleteHandler *
              _wr2RegCompleteHandler *
 ---------------------------------------------------------------------------------
 (11) _I2C1_DO_SEND_RESTART_WRITE                          0     0      0       0
 ---------------------------------------------------------------------------------
 (11) _I2C1_DO_SEND_RESTART_READ                           0     0      0   23713
              _I2C1_DO_SEND_ADR_READ
              _I2C1_MasterSetCounter
 ---------------------------------------------------------------------------------
 (12) _I2C1_DO_SEND_ADR_READ                               0     0      0   23691
                   _I2C1_DO_RX_EMPTY
              _I2C1_MasterSendTxData
 ---------------------------------------------------------------------------------
 (11) _I2C1_MasterSendTxData                               1     1      0      22
                                              0 COMRAM     1     1      0
 ---------------------------------------------------------------------------------
 (13) _I2C1_DO_RX_EMPTY                                    2     2      0   23669
                                             13 COMRAM     2     2      0
                                NULL *
           _I2C1_CallbackReturnReset *
            _I2C1_CallbackReturnStop *
          _I2C1_MasterDisableRestart
           _I2C1_MasterEnableRestart
              _I2C1_MasterSetCounter
              _rd1RegCompleteHandler *
              _rd2RegCompleteHandler *
            _rdBlkRegCompleteHandler *
              _wr1RegCompleteHandler *
              _wr2RegCompleteHandler *
 ---------------------------------------------------------------------------------
 (11) _I2C1_MasterSetCounter                               1     1      0      22
                                              0 COMRAM     1     1      0
 ---------------------------------------------------------------------------------
 (11) _I2C1_MasterEnableRestart                            0     0      0       0
 ---------------------------------------------------------------------------------
 (11) _I2C1_MasterDisableRestart                           0     0      0       0
 ---------------------------------------------------------------------------------
 (10) _I2C1_DO_RESET                                       0     0      0       0
                _I2C1_MasterResetBus
 ---------------------------------------------------------------------------------
 (11) _I2C1_MasterResetBus                                 0     0      0       0
 ---------------------------------------------------------------------------------
 (10) _I2C1_DO_ADDRESS_NACK                                2     2      0   23647
                                             13 COMRAM     2     2      0
                                NULL *
           _I2C1_CallbackReturnReset *
            _I2C1_CallbackReturnStop *
               _I2C1_DO_SEND_RESTART
              _rd1RegCompleteHandler *
              _rd2RegCompleteHandler *
            _rdBlkRegCompleteHandler *
              _wr1RegCompleteHandler *
              _wr2RegCompleteHandler *
 ---------------------------------------------------------------------------------
 (11) _wr2RegCompleteHandler                               2     0      2    4672
                                             11 COMRAM     2     0      2
                     _I2C1_SetBuffer
       _I2C1_SetDataCompleteCallback
 ---------------------------------------------------------------------------------
 (11) _wr1RegCompleteHandler                               2     0      2    4672
                                             11 COMRAM     2     0      2
                     _I2C1_SetBuffer
       _I2C1_SetDataCompleteCallback
 ---------------------------------------------------------------------------------
 (11) _rdBlkRegCompleteHandler                             2     0      2    4694
                                             11 COMRAM     2     0      2
                     _I2C1_SetBuffer
       _I2C1_SetDataCompleteCallback
 ---------------------------------------------------------------------------------
 (11) _rd2RegCompleteHandler                               2     0      2    4672
                                             11 COMRAM     2     0      2
                     _I2C1_SetBuffer
       _I2C1_SetDataCompleteCallback
 ---------------------------------------------------------------------------------
 (11) _rd1RegCompleteHandler                               2     0      2    4672
                                             11 COMRAM     2     0      2
                     _I2C1_SetBuffer
       _I2C1_SetDataCompleteCallback
 ---------------------------------------------------------------------------------
 (6) _I2C1_SetDataCompleteCallback                         5     0      5    2630
                                              6 COMRAM     5     0      5
                   _I2C1_SetCallback
 ---------------------------------------------------------------------------------
 (7) _I2C1_SetCallback                                     6     1      5     914
                                              0 COMRAM     6     1      5
 ---------------------------------------------------------------------------------
 (6) _I2C1_SetBuffer                                       4     0      4    2020
                                              0 COMRAM     4     0      4
 ---------------------------------------------------------------------------------
 (10) _I2C1_DO_SEND_RESTART                                0     0      0       0
 ---------------------------------------------------------------------------------
 (11) _I2C1_CallbackReturnStop                             2     0      2       0
                                             11 COMRAM     2     0      2
 ---------------------------------------------------------------------------------
 (11) _I2C1_CallbackReturnReset                            2     0      2     265
                                             11 COMRAM     2     0      2
 ---------------------------------------------------------------------------------
 (11) NULL(Fake)                                           2     0      2       0
 ---------------------------------------------------------------------------------
 (10) _I2C1_ClearInterruptFlags                            0     0      0       0
          _I2C1_MasterClearCountFlag
           _I2C1_MasterClearNackFlag
           _I2C1_MasterClearStopFlag
          _I2C1_MasterIsCountFlagSet
           _I2C1_MasterIsNackFlagSet
           _I2C1_MasterIsStopFlagSet
 ---------------------------------------------------------------------------------
 (11) _I2C1_MasterIsStopFlagSet                            0     0      0       0
 ---------------------------------------------------------------------------------
 (11) _I2C1_MasterIsNackFlagSet                            0     0      0       0
 ---------------------------------------------------------------------------------
 (11) _I2C1_MasterIsCountFlagSet                           0     0      0       0
 ---------------------------------------------------------------------------------
 (11) _I2C1_MasterClearStopFlag                            0     0      0       0
 ---------------------------------------------------------------------------------
 (11) _I2C1_MasterClearNackFlag                            0     0      0       0
 ---------------------------------------------------------------------------------
 (11) _I2C1_MasterClearCountFlag                           0     0      0       0
 ---------------------------------------------------------------------------------
 (6) _I2C1_Close                                           1     1      0      15
                                              0 COMRAM     1     1      0
                _I2C1_MasterClearIrq
                   _I2C1_MasterClose
              _I2C1_MasterDisableIrq
 ---------------------------------------------------------------------------------
 (7) _I2C1_MasterDisableIrq                                0     0      0       0
 ---------------------------------------------------------------------------------
 (7) _I2C1_MasterClose                                     0     0      0       0
 ---------------------------------------------------------------------------------
 (7) _I2C1_MasterClearIrq                                  0     0      0       0
 ---------------------------------------------------------------------------------
 Estimated maximum stack depth 13
 ---------------------------------------------------------------------------------

 Call Graph Graphs:

 _main (ROOT)
   _I2C_LCD_Init
     _I2C_LCD_Cmd
       _sendCMD
         _loadPCF
           _PCF_Wr
             _I2C1_Write
               _I2C1_Close
                 _I2C1_MasterClearIrq
                 _I2C1_MasterClose
                 _I2C1_MasterDisableIrq
               _I2C1_MasterWrite
                 _I2C1_MasterOperation
                   _I2C1_DO_SEND_ADR_READ
                     _I2C1_DO_RX_EMPTY
                       NULL(Fake) *
                       _I2C1_CallbackReturnReset *
                       _I2C1_CallbackReturnStop *
                       _I2C1_MasterDisableRestart *
                       _I2C1_MasterEnableRestart *
                       _I2C1_MasterSetCounter *
                       _rd1RegCompleteHandler *
                         _I2C1_SetBuffer
                         _I2C1_SetDataCompleteCallback
                           _I2C1_SetCallback
                       _rd2RegCompleteHandler *
                         _I2C1_SetBuffer
                         _I2C1_SetDataCompleteCallback
                       _rdBlkRegCompleteHandler *
                         _I2C1_SetBuffer
                         _I2C1_SetDataCompleteCallback
                       _wr1RegCompleteHandler *
                         _I2C1_SetBuffer
                         _I2C1_SetDataCompleteCallback
                       _wr2RegCompleteHandler *
                         _I2C1_SetBuffer
                         _I2C1_SetDataCompleteCallback
                     _I2C1_MasterSendTxData
                   _I2C1_DO_SEND_ADR_WRITE
                     _I2C1_MasterSendTxData
                   _I2C1_MasterSetCounter
                   _I2C1_Poller
                     _I2C1_MasterFsm
                       _I2C1_ClearInterruptFlags
                         _I2C1_MasterClearCountFlag
                         _I2C1_MasterClearNackFlag
                         _I2C1_MasterClearStopFlag
                         _I2C1_MasterIsCountFlagSet
                         _I2C1_MasterIsNackFlagSet
                         _I2C1_MasterIsStopFlagSet
                       _I2C1_DO_ADDRESS_NACK *
                         NULL(Fake) *
                         _I2C1_CallbackReturnReset *
                         _I2C1_CallbackReturnStop *
                         _I2C1_DO_SEND_RESTART *
                         _rd1RegCompleteHandler *
                         _rd2RegCompleteHandler *
                         _rdBlkRegCompleteHandler *
                         _wr1RegCompleteHandler *
                         _wr2RegCompleteHandler *
                       _I2C1_DO_BUS_COLLISION *
                         NULL(Fake) *
                         _I2C1_CallbackReturnReset *
                         _I2C1_CallbackReturnStop *
                         _I2C1_DO_RESET *
                           _I2C1_MasterResetBus
                         _I2C1_DO_SEND_RESTART_READ *
                           _I2C1_DO_SEND_ADR_READ
                           _I2C1_MasterSetCounter
                         _I2C1_DO_SEND_RESTART_WRITE *
                         _I2C1_MasterClearIrq *
                         _rd1RegCompleteHandler *
                         _rd2RegCompleteHandler *
                         _rdBlkRegCompleteHandler *
                         _wr1RegCompleteHandler *
                         _wr2RegCompleteHandler *
                       _I2C1_DO_BUS_ERROR *
                         _I2C1_MasterResetBus
                       _I2C1_DO_IDLE *
                       _I2C1_DO_RESET *
                       _I2C1_DO_RX *
                         _I2C1_DO_RX_EMPTY
                         _I2C1_MasterGetRxData
                         _I2C1_MasterIsRxBufFull
                       _I2C1_DO_RX_ACK *
                         _I2C1_MasterSendAck
                       _I2C1_DO_RX_EMPTY *
                       _I2C1_DO_RX_NACK_RESTART *
                         _I2C1_MasterSendNack
                       _I2C1_DO_RX_NACK_STOP *
                         _I2C1_DO_IDLE
                         _I2C1_MasterSendNack
                         _I2C1_MasterStop
                       _I2C1_DO_SEND_ADR_READ *
                       _I2C1_DO_SEND_ADR_WRITE *
                       _I2C1_DO_SEND_RESTART *
                       _I2C1_DO_SEND_RESTART_READ *
                       _I2C1_DO_SEND_RESTART_WRITE *
                       _I2C1_DO_SEND_STOP *
                         _I2C1_MasterGetCounter
                         _I2C1_MasterSendTxData
                         _I2C1_MasterSetCounter
                         _I2C1_MasterStop
                       _I2C1_DO_TX *
                         NULL(Fake) *
                         _I2C1_CallbackReturnReset *
                         _I2C1_CallbackReturnStop *
                         _I2C1_DO_SEND_RESTART_READ *
                         _I2C1_DO_SEND_RESTART_WRITE *
                         _I2C1_DO_TX_EMPTY *
                           NULL(Fake) *
                           _I2C1_CallbackReturnReset *
                           _I2C1_CallbackReturnStop *
                           _I2C1_MasterDisableRestart *
                           _I2C1_MasterEnableRestart *
                           _I2C1_MasterSetCounter *
                           _rd1RegCompleteHandler *
                           _rd2RegCompleteHandler *
                           _rdBlkRegCompleteHandler *
                           _wr1RegCompleteHandler *
                           _wr2RegCompleteHandler *
                         _I2C1_MasterIsNack *
                         _I2C1_MasterIsTxBufEmpty *
                         _I2C1_MasterSendTxData *
                         _rd1RegCompleteHandler *
                         _rd2RegCompleteHandler *
                         _rdBlkRegCompleteHandler *
                         _wr1RegCompleteHandler *
                         _wr2RegCompleteHandler *
                       _I2C1_DO_TX_ACK *
                         _I2C1_MasterSendAck
                       _I2C1_DO_TX_EMPTY *
                       _I2C1_MasterIsNack *
                     _I2C1_MasterWaitForEvent
               _I2C1_Open
                 _I2C1_MasterClearIrq
                 _I2C1_MasterOpen
               _I2C1_SetAddressNackCallback
                 _I2C1_SetCallback
               _I2C1_SetBuffer
               _I2C1_SetDataCompleteCallback
     _PCF_Wr
     _sendCMD
   _SYSTEM_Initialize
     _ADCC_Initialize
     _I2C1_Initialize
     _OSCILLATOR_Initialize
     _PIN_MANAGER_Initialize
     _PMD_Initialize
     _UART1_Initialize
       _UART1_SetErrorHandler
       _UART1_SetFramingErrorHandler
       _UART1_SetOverrunErrorHandler
   _printf
     _vfprintf
       _vfpfcnvrt
         _fputc
           _putch
             _UART1_Write

 Address spaces:
Name               Size   Autos  Total    Cost      Usage
BIGRAM            1FFF      0       0      69        0.0%
EEDATA             400      0       0       0        0.0%
BITBIGSFRlllllh    160      0       0      93        0.0%
BITBIGSFRhll       125      0       0      83        0.0%
BITBIGSFR_1        100      0       0      68        0.0%
BITBANK36          100      0       0      66        0.0%
BANK36             100      0       0      67        0.0%
BITBANK35          100      0       0      64        0.0%
BANK35             100      0       0      65        0.0%
BITBANK34          100      0       0      62        0.0%
BANK34             100      0       0      63        0.0%
BITBANK33          100      0       0      60        0.0%
BANK33             100      0       0      61        0.0%
BITBANK32          100      0       0      58        0.0%
BANK32             100      0       0      59        0.0%
BITBANK31          100      0       0      56        0.0%
BANK31             100      0       0      57        0.0%
BITBANK30          100      0       0      54        0.0%
BANK30             100      0       0      55        0.0%
BITBANK29          100      0       0      52        0.0%
BANK29             100      0       0      53        0.0%
BITBANK28          100      0       0      50        0.0%
BANK28             100      0       0      51        0.0%
BITBANK27          100      0       0      48        0.0%
BANK27             100      0       0      49        0.0%
BITBANK26          100      0       0      46        0.0%
BANK26             100      0       0      47        0.0%
BITBANK25          100      0       0      44        0.0%
BANK25             100      0       0      45        0.0%
BITBANK24          100      0       0      42        0.0%
BANK24             100      0       0      43        0.0%
BITBANK23          100      0       0      40        0.0%
BANK23             100      0       0      41        0.0%
BITBANK22          100      0       0      38        0.0%
BANK22             100      0       0      39        0.0%
BITBANK21          100      0       0      36        0.0%
BANK21             100      0       0      37        0.0%
BITBANK20          100      0       0      34        0.0%
BANK20             100      0       0      35        0.0%
BITBANK19          100      0       0      32        0.0%
BANK19             100      0       0      33        0.0%
BITBANK18          100      0       0      30        0.0%
BANK18             100      0       0      31        0.0%
BITBANK17          100      0       0      28        0.0%
BANK17             100      0       0      29        0.0%
BITBANK16          100      0       0      26        0.0%
BANK16             100      0       0      27        0.0%
BITBANK15          100      0       0      24        0.0%
BANK15             100      0       0      25        0.0%
BITBANK14          100      0       0      22        0.0%
BANK14             100      0       0      23        0.0%
BITBANK13          100      0       0      20        0.0%
BANK13             100      0       0      21        0.0%
BITBANK12          100      0       0      18        0.0%
BANK12             100      0       0      19        0.0%
BITBANK11          100      0       0      16        0.0%
BANK11             100      0       0      17        0.0%
BITBANK10          100      0       0      14        0.0%
BANK10             100      0       0      15        0.0%
BITBANK9           100      0       0      12        0.0%
BANK9              100      0       0      13        0.0%
BITBANK8           100      0       0      10        0.0%
BANK8              100      0       0      11        0.0%
BITBANK7           100      0       0       8        0.0%
BANK7              100      0       0       9        0.0%
BITBANK6           100      0       0       6        0.0%
BANK6              100      0       0       7        0.0%
BITBANK5            A0      0       0       4        0.0%
BANK5               A0      0      23       5       21.9%
BITBIGSFRhlhhhh     78      0       0      75        0.0%
BITBIGSFRllllll     60      0       0      98        0.0%
BITCOMRAM           5F      0       0       0        0.0%
COMRAM              5F     25      5E       1       98.9%
BITBIGSFRlllllh     45      0       0      91        0.0%
BITBIGSFRllllll     43      0       0      96        0.0%
BITBIGSFRhhhhh      34      0       0      70        0.0%
BITBIGSFRlllllh     14      0       0      92        0.0%
BITBIGSFRlllllh     13      0       0      90        0.0%
BITBIGSFRhlhhhh      C      0       0      74        0.0%
BITBIGSFRhhhll       8      0       0      72        0.0%
BITBIGSFRlllh        6      0       0      88        0.0%
BITBIGSFRhlhhhh      5      0       0      81        0.0%
BITBIGSFRllhh        4      0       0      86        0.0%
BITBIGSFRhlhhhh      3      0       0      80        0.0%
BITBIGSFRhlhhhh      3      0       0      76        0.0%
BITBIGSFRhlhhhh      3      0       0      79        0.0%
BITBIGSFRhlhhhh      3      0       0      78        0.0%
BITBIGSFRhlhhhh      3      0       0      77        0.0%
BITBIGSFRhhhhll      2      0       0      71        0.0%
BITBIGSFRhhl         2      0       0      73        0.0%
BITBIGSFRllllhl      1      0       0      89        0.0%
BITBIGSFRllllll      1      0       0      97        0.0%
BITBIGSFRlllllh      1      0       0      94        0.0%
BITBIGSFRlllllh      1      0       0      95        0.0%
BITBIGSFRllhll       1      0       0      87        0.0%
BITBIGSFRhlhhhh      1      0       0      82        0.0%
BITBIGSFRlhh         1      0       0      84        0.0%
BITBIGSFRlhl         1      0       0      85        0.0%
BIGSFR_1             0      0       0     200        0.0%
BIGSFR               0      0       0     200        0.0%
BITSFR_6             0      0       0     200        0.0%
SFR_6                0      0       0     200        0.0%
BITSFR_5             0      0       0     200        0.0%
SFR_5                0      0       0     200        0.0%
BITSFR_4             0      0       0     200        0.0%
SFR_4                0      0       0     200        0.0%
BITSFR_3             0      0       0     200        0.0%
SFR_3                0      0       0     200        0.0%
BITSFR_2             0      0       0     200        0.0%
SFR_2                0      0       0     200        0.0%
BITSFR_1             0      0       0     200        0.0%
SFR_1                0      0       0     200        0.0%
BITSFR               0      0       0     200        0.0%
SFR                  0      0       0     200        0.0%
STACK                0      0       0       2        0.0%
NULL                 0      0       0       0        0.0%
ABS                  0      0      81      99        0.0%
DATA                 0      0      81       3        0.0%
CODE                 0      0       0       0        0.0%


Microchip Technology PIC18 Macro Assembler V2.41 build 20230208172133 
Symbol Table                                                                                   Fri Mar 29 20:08:21 2024

                              I2C1_Write@data 0547                                            l51 2E22  
                                          l99 32EA                                            u70 35B8  
                                          u71 35B2                                            u80 358C  
                                          u81 3586                                            u90 35A2  
                                          u91 359C                                            u76 35BA  
                                          u86 358E                                            u96 35A4  
                                         l102 32BA                                           l111 3224  
                                         l200 3524                                           l105 328A  
                                         l203 3536                                           l108 331A  
                                         l221 35EC                                           l206 3654  
                                         l303 303C                                           l224 3608  
                                         l218 35FA                                           l174 2E96  
                                         l601 3668                                           l541 33C4  
                                         l605 339A                                           l701 3616  
                                         l533 3458                                           l710 36F2  
                                         l614 2788                                           l631 2BA2  
                                         l560 347A                                           l608 35CE  
                                         l632 2B5A                                           l800 3098  
                                         l720 3370                                           l801 30AA  
                                         l553 367A                                           l537 2A74  
                                         l723 364A                                           l563 34EA  
                                         l707 36F6                                           l803 30BC  
                                         l547 31E0                                           l580 2D32  
                                         l732 36B0                                           l660 36EE  
                                         l804 30D0                                           l741 36CE  
                                         l805 30E2                                           l726 36C8  
                                         l750 3562                                           l670 368A  
                                         l590 2FE0                                           l735 36A2  
                                         l639 2DAC                                           l663 36EA  
                                         l744 36D4                                           l648 2B12  
                                         l808 30F0                                           l729 369A  
                                         l753 36C2                                           l673 3692  
                                         l657 363E                                           l569 34B2  
                                         l738 3672                                           l762 3578  
                                         l682 3624                                           l586 34CE  
                                         l771 35BA                                           l747 36B6  
                                         l667 33EC                                           l851 3520  
                                         l780 36E6                                           l756 36BC  
                                         l676 3632                                           l765 354C  
                                         l774 35A4                                           l598 3194  
                                         l854 3496                                           l783 36E0  
                                         l679 3682                                           l695 2F0A  
                                         l768 358E                                           l688 2F76  
                                         l777 36DA                                           l857 3436  
                                         l794 3506                                           l964 29D2  
                                         l797 36AA                                           u120 3576  
                                         u121 3570                                           u130 3158  
                                         u131 3154                                           u140 3174  
                                         u300 30DE                                           u141 3170  
                                         u301 30DA                                           u150 3190  
                                         u126 3578                                           u310 30F0  
                                         u151 318C                                           u311 30EC  
                                         u400 33AE                                           u401 33AA  
                                         u270 30A6                                           u430 3532  
                                         u271 30A2                                           u431 352E  
                                         u280 30B8                                           u360 3358  
                                         u281 30B4                                           u361 3354  
                                         u290 30CC                                           u291 30C8  
                                         u800 2CCA                                           u801 2CC6  
                                         u810 3468                                           u811 3464  
                                         u900 270A                                           u820 2AAE  
                                         u901 2706                                           u821 2AAA  
                                         u910 271E                                           u911 271A  
                                         u840 338C                                           u920 275E  
                                         u841 3388                                           u921 275A  
                                         u850 3560                                           u930 2B28  
                                         u851 355A                                           u931 2B24  
                                         u860 354A                                           u940 2B42  
                                         u861 3544                                           u941 2B3E  
                                         u950 2B72                                           u838 2AC6  
                                         u951 2B6E                                           u839 2ADA  
                                         u856 3562                                           u880 267E  
                                         u960 33DE                                           u881 267A  
                                         u961 33DA                                           u866 354C  
                                         u878 2D68                                           u990 2F90  
                                         u879 2D7C                                           u991 2F8C  
                                         u898 26AA                                           u978 2F3A  
                                         u899 26BE                                           u979 2F4E  
                                         u988 2ECE                                           u989 2EE2  
                 ??_I2C1_MasterClearCountFlag 0532                         ?_I2C1_MasterOperation 0532  
                      ?_I2C1_MasterSetCounter 0532                                           prod 04F3  
                                         tosl 04FD                                           wreg 04E8  
                      ?_I2C1_MasterSendTxData 0532                          _I2C1_DO_RX_NACK_STOP 3626  
                   ?_I2C1_MasterEnableRestart 0532                      fp__I2C1_DO_SEND_ADR_READ 0000  
                     fp__I2C1_DO_SEND_RESTART 0000                                  _I2C_LCD_Init 2BA4  
                        I2C1_SetBuffer@buffer 0532                    ??_I2C1_MasterIsStopFlagSet 0532  
                                        l1002 35DE                                          l1021 365E  
                                        l1015 3346                                          l2001 3618  
                                        l1009 3096                                          l1018 2C2C  
                                        l2003 361C                       ??_rd2RegCompleteHandler 053F  
                                        l2021 3158                                          l2005 361E  
                                        l2023 3160                                          l2007 3622  
                                        l2025 3174                                          l3001 32BC  
                                        l2027 317C                                          l2019 3144  
                                        l3003 32D0                                          l3011 32A0  
                                        l2131 368C                                          l2029 3190  
                                        l3005 32E8                                          l3013 32B8  
                                        l3021 3288                                          l2133 3690  
                                        l3101 3398                                          l2125 3684  
                                        l3111 363A                                          l2127 3688  
                                        l2143 367C                                          l2231 3348  
                                        l2241 34EC                                          l3025 32EC  
                                        l3009 328C                                          l3017 325C  
                                        l3033 31E2                                          l3041 369E  
                                        l3105 354E                                          l2137 3626  
                                        l2145 3680                                          l2233 3358  
                                        l2243 3640                                          l2331 33A0  
                                        l3027 3300                                          l3019 3270  
                                        l3035 320A                                          l3051 36F0  
                                        l3043 36CA                                          l3131 2D44  
                                        l3123 2D34                                          l3115 36EC  
                                        l2139 362E                                          l2235 3364  
                                        l2245 3644                                          l2341 33BE  
                                        l2333 33AE                                          l3029 3318  
                                        l3037 3222                                          l3045 36D0  
                                        l3205 2786                                          l3221 2B42  
                                        l3213 2B14                                          l3133 2D4A  
                                        l3125 2D3A                                          l3109 3634  
                                        l3301 2F90                                          l2237 336E  
                                        l2247 3648                                          l2335 33B2  
                                        l2343 33C2                                          l3047 36F4  
                                        l3119 3538                                          l3151 35BC  
                                        l3223 2B72                                          l3215 2B28  
                                        l3127 2D3E                                          l3071 2A96  
                                        l3063 2A86                                          l3055 2A76  
                                        l3303 2FA4                                          l3311 34BC  
                                        l2337 33B6                                          l2329 339C  
                                        l3153 35C4                                          l3225 2B80  
                                        l3233 2B88                                          l3137 2D50  
                                        l3145 2D5A                                          l3065 2A8A  
                                        l3057 2A7C                                          l2193 360A  
                                        l3305 2FA8                                          l3313 34C0  
                                        l3321 31AC                                          l3401 2DDE  
                                        l2361 3524                                          l2339 33BA  
                                        l3091 3696                                          l3155 35CC  
                                        l3171 2692                                          l3163 2682  
                                        l3235 2B8E                                          l3219 2B2E  
                                        l3139 2D54                                          l3075 2A9C  
                                        l3059 2A80                                          l3243 33C6  
                                        l2195 360E                                          l3307 34B4  
                                        l3331 31D2                                          l3323 31B0  
                                        l3315 3198                                          l3403 2DF2  
                                        l3411 3040                                          l2451 3456  
                                        l2363 3532                                          l3093 3372  
                                        l3181 270A                                          l3237 2B9C  
                                        l3077 2AAE                                          l3069 2A90  
                                        l3085 2AB8                                          l3245 33CA  
                                        l3261 2F22                                          l3253 2F0C  
                                        l2197 3610                                          l3309 34B8  
                                        l3333 31D6                                          l3325 31B6  
                                        l3317 319C                                          l3341 29D6  
                                        l3405 2E0A                                          l3421 307A  
                                        l3413 3044                                          l2461 293C  
                                        l2365 364E                                          l3501 311A  
                                        l1911 35A6                                          l1903 366A  
                                        l3095 337A                                          l3191 275E  
                                        l3183 271E                                          l3167 268A  
                                        l3159 266A                                          l3239 2BA0  
                                        l3079 2AB2                                          l3247 33DE  
                                        l3255 2F14                                          l2199 3614  
                                        l3335 31DA                                          l3327 31C6  
                                        l3319 31AA                                          l3351 29F0  
                                        l3343 29DA                                          l3407 2E0E  
                                        l3423 3080                                          l3415 304A  
                                        l2447 2FE2                                          l2471 299C  
                                        l2463 2942                                          l2455 3414  
                                        l3503 313A                                          l3511 33EE  
                                        l1905 36A4                                          l1921 36D6  
                                        l3097 338C                                          l3193 276E  
                                        l3185 2736                                          l3177 2698  
                                        l3249 33EA                                          l3257 2F1A  
                                        l3281 2EAC                                          l3273 2E98  
                                        l3329 31CA                                          l3337 31DE  
                                        l3361 2A0E                                          l3353 29F4  
                                        l3345 29E8                                          l3409 35D2  
                                        l3425 3082                                          l3521 2BC2  
                                        l2449 3438                                          l2481 29AA  
                                        l2473 299E                                          l2465 2944  
                                        l2457 291A                                          l3441 27B8  
                                        l1761 3142                                          l1729 3412  
                                        l3513 33F6                                          l1915 36E2  
                                        l1923 3590                                          l1931 3662  
                                        l3099 3390                                          l3195 2776  
                                        l3187 2742                                          l3179 26F6  
                                        l3267 2F28                                          l3291 2EBC  
                                        l3275 2E9C                                          l3371 2A3E  
                                        l3363 2A16                                          l3355 29F8  
                                        l3347 29EC                                          l3427 308A  
                                        l3419 3050                                          l3531 2C0A  
                                        l3523 2BD8                                          l2491 347C  
                                        l2483 29AC                                          l2475 29A0  
                                        l2467 294C                                          l2459 293A  
                                        l3451 35E0                                          l3507 3508  
                                        l3443 27D6                                          l3435 278A  
                                        l1755 2CB2                                          l1917 357A  
                                        l1933 3666                                          l3197 277A  
                                        l3189 2746                                          l3285 2EB4  
                                        l3277 2EA4                                          l3381 2A6A  
                                        l3373 2A4A                                          l3365 2A22  
                                        l3357 2A00                                          l3349 29EE  
                                        l3429 3090                                          l3533 2C10  
                                        l3525 2BDE                                          l3517 2BA4  
                                        l2485 29AE                                          l2477 29A2  
                                        l2469 2956                                          l3453 35FC  
                                        l3509 351C                                          l3445 280C  
                                        l1773 2852                                          l3437 279C  
                                        l3461 2C2E                                          l3701 28D0  
                                        l1927 36DC                                          l3199 2780  
                                        l3391 3674                                          l3383 2A6E  
                                        l3375 2A52                                          l3367 2A2A  
                                        l3359 2A02                                          l3455 331E  
                                        l3535 2C18                                          l3527 2BFE  
                                        l3519 2BAA                                          l2487 29B0  
                                        l2479 29A8                                          l3439 27AE  
                                        l3463 2C56                                          l3703 28D4  
                                        l1929 3660                                          l3297 2F78  
                                        l3377 2A5E                                          l3369 2A36  
                                        l3385 2A72                                          l3457 3332  
                                        l3537 2C1E                                          l3529 2C06  
                                        l2489 29B6                                          l3449 35EE  
                                        l3481 2E62                                          l3465 2C64  
                                        l3473 2C86                                          l3705 28FA  
                                        l3299 2F7C                                          l3379 2A66  
                                        l3395 2DB0                                          l3459 333C  
                                        l3483 2E72                                          l3467 2C70  
                                        l3389 3498                                          l3397 2DB0  
                                        l3485 2E82                                          l3469 2C74  
                                        l1983 36C4                                          l1991 36B2  
                                        l3399 2DC6                                          l3495 3658  
                                        l3487 2E92                                          l3479 2E24  
                                        l1993 36AC                                          l3497 30F2  
                                        l1979 3564                                          l3851 2AEC  
                                        l1987 36E8                                          l3499 30FE  
                                        l3691 2864                                          l1997 36BE  
                                        l3853 2D8E                                          l3845 3064  
                                        l3693 287C                                          l2991 34D0  
                                        l1999 36B8                                          l3855 26D0  
                                        l3847 2EF4                                          l3695 2894  
                                        l3687 2854                                          l2993 345A  
                                        l2985 2CB6                                          l3849 2F60  
                                        l3697 28AC                                          l3689 2858  
                                        l2995 3468                                          l2987 2CCA  
                                        l3699 28C4                                          l2997 3470  
                                        l2989 2D02                                          l2999 3478  
                                        STR_1 263A                                          STR_2 2657  
                                        u1000 2FA4                                          u1001 2FA0  
                                        u1020 34CE                                          u1100 27D6  
                                        u1021 34CA                                          u1101 27D2  
                                        u1030 31AA                                          u1110 280C  
                                        u1031 31A6                                          u1111 2808  
                                        u1040 31C6                                          u1120 2C56  
                                        u1041 31C2                                          u1121 2C52  
                                        u1018 2FC4                                          u1050 29E8  
                                        u1130 313A                                          u1019 2FDE  
                                        u1051 29E4                                          u1131 3136  
                                        u1060 2DC6                                          u1061 2DC2  
                                        u1070 2E22                                          u1071 2E1E  
                                        u1080 279C                                          u1081 2798  
                                        u1090 27AE                                          u1091 27AA  
                                        _LATA 04BE                                          u1350 28E4  
                                        _LATB 04BF                                          u1351 28DE  
                                        u1407 289E                                          _LATC 04C0  
                                        _LATD 04C1                                          u1417 28B6  
                                        _LATE 04C2                                          _LATF 04C3  
                                        u1427 2904                                          u1356 28E6  
                                        u1437 2BB4                                          u1447 2BCE  
                                        u1457 2BE0                                          u1467 2C00  
                                        u1387 286E                                          u1477 2C12  
                                        u1397 2886                                          u1487 2C24  
                                        u1497 3092                                          _PMD0 0060  
                                        _PMD1 0061                                          _PMD3 0063  
                                        _PMD4 0064                                          _PMD5 0065  
                                        _PMD6 0066                                          _PMD7 0067  
                                        _PMD8 0068                                          _WPUA 0401  
                                        _WPUB 0409                                          _WPUC 0411  
                                        _WPUD 0419                                          _WPUE 0421  
                                        _WPUF 0429                       ??_wr2RegCompleteHandler 053F  
                            ??_I2C1_MasterFsm 0545                     ??_I2C1_CallbackReturnStop 053F  
                           I2C1_Write@address 0548                                          _dbuf 0560  
                                        _main 2854                                          _prec 052D  
                                        fsr1h 04E2                                          fsr2h 04DA  
                                        indf2 04DF                                          fsr1l 04E1  
                                        fsr2l 04D9                                          prodh 04F4  
                                        prodl 04F3                                          start FFFC  
                            ??_I2C1_SetBuffer 0536                                  ___param_bank 0000  
               I2C1_CallbackReturnStop@funPtr 053D                               _I2C1_DO_TX$1411 0541  
               __end_of_OSCILLATOR_Initialize 3498                             __end_of_I2C1_Open 2A76  
                                       _ADACT 03F9                                         _ADCAP 03F0  
                                       ?_main 0532                                         _ADCLK 03FA  
                                       _ADCNT 03E6                                         _ADPCH 03EC  
                                       _ADREF 03F8                                         _ADRPT 03E7  
                                       _U1P1H 02A6                                         _U1P2H 02A8  
                                       _U1P3H 02AA                                         _U1P1L 02A5  
                                       _U1P2L 02A7                                         _U1P3L 02A9  
                                       _U1UIR 02B1                                         _U1RXB 02A1  
                                       _U1TXB 02A3                                sendCMD@nibbleH 054F  
                              sendCMD@nibbleL 0550                    __end_of_i2c1_fsmStateTable 263A  
                                       _OSCEN 00B3                                  vfpfcnvrt@fmt 053F  
                                       _TRISA 04C6                                         _TRISB 04C7  
                                       _TRISC 04C8                                         _TRISD 04C9  
                                       _TRISE 04CA                                         _TRISF 04CB  
                      ??_I2C1_MasterGetRxData 0532                         ?_I2C1_DO_RX_NACK_STOP 0532  
                  ??_I2C1_CallbackReturnReset 053F                             ??_I2C1_MasterOpen 0532  
                           ??_I2C1_MasterStop 0532                             ??_I2C1_Initialize 0532  
                   ?_I2C1_MasterIsNackFlagSet 0532                                   loadPCF@dato 054D  
                                 loadPCF@mode 054A                               __end_of_loadPCF 3098  
                                       _flags 052F                                         _fputc 278A  
                             __end_of_sendCMD 3348                                         _width 052B  
                                       _putch 364C              __end_of_I2C1_MasterClearNackFlag 36E2  
                                       pclath 04FA                                         tablat 04F5  
                                       status 04D8                                  ??_I2C1_DO_RX 0541  
                                ??_I2C1_DO_TX 053F                     _I2C1_MasterClearCountFlag 36E2  
            _UART1_DefaultFramingErrorHandler 0000                        ??_I2C1_DO_ADDRESS_NACK 053F  
                                ??_I2C1_Close 0532                                  ??_I2C1_Write 0548  
                    fp__rd1RegCompleteHandler 0000                               __initialization 3226  
                                __end_of_main 291A                      fp__wr1RegCompleteHandler 0000  
                  ?_I2C1_MasterDisableRestart 0532                  I2C1_MasterSetCounter@counter 0532  
                                ?_UART1_Write 0532              __end_of_I2C1_MasterClearStopFlag 36DC  
                fp__I2C1_DO_SEND_RESTART_READ 0000                        ??_I2C1_MasterOperation 0545  
                                      ??_main 0555                                 __activetblptr 0003  
                          __end_of_I2C1_DO_RX 2BA4                            __end_of_I2C1_DO_TX 278A  
                            _UART1_Initialize 2E24                            __end_of_I2C1_Close 33C6  
                                      _ADACCH 03E4                                        _ADACCL 03E3  
                                      _ADACCU 03E5                                        _ADACQH 03EF  
                                      _ADACQL 03EE                                        _ADCON0 03F3  
                                      _ADCON1 03F4                                        _ADCON2 03F5  
                                      _ADCON3 03F6                                        _ADERRH 03DE  
                                      _ADERRL 03DD                                        ?_fputc 0534  
                                      _ACTCON 00AC                                        _ADLTHH 03DA  
                                      _ADLTHL 03D9                                        _ADRESH 03EB  
                                      _ADRESL 03EA                                        _ADPREH 03F2  
                                      _ADPREL 03F1                                        _ADSTAT 03F7  
                          __end_of_I2C1_Write 2E24                                        _ADUTHH 03DC  
                                      _ADUTHL 03DB                                        _ANSELA 0400  
                                      ?_putch 0532                                        _ANSELB 0408  
                                      _ANSELC 0410                                        _ANSELD 0418  
                                      _ANSELE 0420                                        _ANSELF 0428  
                                      _RB1I2C 0289                                        _RB2I2C 0288  
                                      _U1CON0 02AB                                        _U1CON1 02AC  
                                      _U1CON2 02AD                                        _RC3I2C 0287  
                                      _RC4I2C 0286                                        _U1BRGH 02AF  
                                      _U1FIFO 02B0                                        _U1BRGL 02AE  
                                      _RC3PPS 0214                                        _RC4PPS 0215  
                                      _ODCONA 0402                                        _ODCONB 040A  
                                      _ODCONC 0412                                        _ODCOND 041A  
                                      _ODCONE 0422                                        _ODCONF 042A  
                                      _RF1PPS 022A                                        _INLVLA 0404  
                                      _INLVLB 040C                                        _INLVLC 0414  
                                      _INLVLD 041C                                        _INLVLE 0424  
                                      _INLVLF 042C                       ??_I2C1_MasterGetCounter 0532  
                                      _PCF_Wr 35D0                                        _OSCFRQ 00B1  
                           ?_I2C1_MasterClose 0532                         _UART1_SetErrorHandler 35FC  
                            _I2C1_DO_RX_EMPTY 2A76                       ??_I2C1_MasterDisableIrq 0532  
                           ?_I2C1_MasterWrite 0532                      ?_I2C1_MasterWaitForEvent 0532  
                          ??_I2C1_MasterClose 0532                              _I2C1_DO_TX_EMPTY 2D34  
                          ??_I2C1_MasterWrite 0547                                  vfprintf@cfmt 0549  
           __end_of_I2C1_MasterDisableRestart 36D6                                        clear_0 3244  
                                      clear_1 3250                                        isa$std 0001  
                                      _printf 33EE                      ??_I2C1_DO_SEND_ADR_WRITE 0532  
                           ?_I2C1_SetCallback 0532                                     ??_loadPCF 054B  
                      ??_I2C1_DO_RX_NACK_STOP 0532                       ??_I2C1_DO_BUS_COLLISION 053F  
                             _ADCC_Initialize 2FE2                         _I2C1_DO_SEND_ADR_READ 3372  
                                      fputc@c 0534                                _PMD_Initialize 3414  
                                __pdataCOMRAM 055D                                     ??_sendCMD 054E  
               ?_I2C1_SetDataCompleteCallback 0538                            ??_I2C1_SetCallback 0537  
                                __mediumconst 0000                                        tblptrh 04F7  
                                      tblptrl 04F6                                        tblptru 04F8  
                            __end_of_vfprintf 3144          __end_of_UART1_SetOverrunErrorHandler 35EE  
                _UART1_SetOverrunErrorHandler 35E0                     _UART1_DefaultErrorHandler 0000  
                     _I2C1_DO_RX_NACK_RESTART 367C                    fp__I2C1_DO_RX_NACK_RESTART 0000  
                           _SYSTEM_Initialize 3508                I2C1_SetDataCompleteCallback@cb 0538  
                                  __accesstop 0560                       __end_of__initialization 3256  
             I2C1_MasterOperation@returnValue 0546                            ?_SYSTEM_Initialize 0532  
                               ___rparam_used 0001                      _I2C1_MasterClearNackFlag 36DC  
                               ??_I2C1_Poller 0545                       _rdBlkRegCompleteHandler 31E2  
                  fp__rdBlkRegCompleteHandler 0000                                __pcstackCOMRAM 0532  
                         ??_SYSTEM_Initialize 0535              __end_of_I2C1_MasterEnableRestart 36D0  
                               __end_of_fputc 2854                                 __end_of_putch 3656  
                     ??_I2C1_MasterSetCounter 0532                        __end_of_PMD_Initialize 3438  
                ??_I2C1_DO_SEND_RESTART_WRITE 0532                       ??_I2C1_MasterSendTxData 0532  
                  ?_I2C1_MasterIsCountFlagSet 0532                     _UART1_FramingErrorHandler 055A  
                    _I2C1_MasterClearStopFlag 36D6                         __end_of_I2C1_DO_RESET 3626  
                           _I2C1_DO_BUS_ERROR 360A                                       ??_fputc 0538  
                   __end_of_SYSTEM_Initialize 3522                                       ??_putch 0533  
                   ?_I2C1_ClearInterruptFlags 0532                                    __pbssBANK5 0560  
                          ?_I2C1_DO_BUS_ERROR 0532               __end_of_I2C1_MasterWaitForEvent 30F2  
               ?_UART1_SetOverrunErrorHandler 0532                        ?_UART1_SetErrorHandler 0532  
                               ??_I2C_LCD_Cmd 0552                                       ?_PCF_Wr 0532  
               __end_of_rd2RegCompleteHandler 32BC                          I2C1_Open@returnValue 0533  
                                  __pnvCOMRAM 0557                 __end_of_wr2RegCompleteHandler 331C  
                       _rd1RegCompleteHandler 32BC                           ??_I2C1_DO_BUS_ERROR 0532  
                           _I2C1_DO_SEND_STOP 33C6                         _wr1RegCompleteHandler 325C  
                    rd1RegCompleteHandler@ptr 053D                                 fp__I2C1_DO_RX 0000  
                               fp__I2C1_DO_TX 0000                               fp__I2C1_DO_IDLE 0000  
                     fp__I2C1_DO_ADDRESS_NACK 0000                            ?_I2C1_DO_SEND_STOP 0532  
                                     _I2C1CLK 029C                                       _I2C1CNT 028D  
                                     _I2C1ERR 0297                                       _I2C1PIE 029B  
                                     _I2C1PIR 029A                                       _I2C1RXB 028B  
                                     _I2C1TXB 028C              __end_of_I2C1_MasterIsNackFlagSet 35A6  
                     __end_of_ADCC_Initialize 303E                               _I2C1_MasterOpen 3348  
                     _I2C1_MasterIsTxBufEmpty 3538                               _I2C1_MasterStop 36B2  
                             _I2C1_Initialize 3438                           __end_of_I2C1_Poller 34D0  
                                     _ADFLTRH 03E2                                       _ADFLTRL 03E1  
                                     _ADPREVH 03E9                                       _ADPREVL 03E8  
                                     _ADSTPTH 03E0                                       _ADSTPTL 03DF  
                           fp__I2C1_DO_RX_ACK 0000                             fp__I2C1_DO_TX_ACK 0000  
                                     ?_printf 054B                               ?_PMD_Initialize 0532  
                      ?_I2C1_DO_SEND_ADR_READ 0532                           ??_I2C1_DO_SEND_STOP 0533  
                                     _DIR_PCF 055D                                       _U1ERRIE 02B3  
                                     _U1ERRIR 02B2                                       _U1RXPPS 0272  
                   __end_of_I2C1_DO_BUS_ERROR 3618                             _I2C1_MasterIsNack 354E  
           __end_of_I2C1_MasterIsCountFlagSet 35BC                                       _OSCCON1 00AD  
                                     _OSCCON3 00AF                                     _I2C1_Open 29D4  
                   ??_I2C1_DO_RX_NACK_RESTART 0532                                       _OSCTUNE 00B0  
                                     _SLRCONA 0403                                       _SLRCONB 040B  
                                     _SLRCONC 0413                                       _SLRCOND 041B  
                                     _SLRCONE 0423                                       _SLRCONF 042B  
                       I2C1_DO_RX@retFsmState 0543                            ?_I2C1_MasterIsNack 0532  
                  ?_I2C1_DO_SEND_RESTART_READ 0532                ??_I2C1_SetDataCompleteCallback 053D  
                          _i2c1_fsmStateTable 2601                           ??_I2C1_MasterIsNack 0532  
                   __end_of_I2C1_DO_SEND_STOP 33EE                     ??_rdBlkRegCompleteHandler 053F  
                          I2C1_SetCallback@cb 0532                                       __Hparam 0000  
                                     __Lparam 0000                      __end_of_UART1_Initialize 2E98  
                         __end_of_I2C_LCD_Cmd 3660                           fp__I2C1_DO_RX_EMPTY 0000  
                         fp__I2C1_DO_TX_EMPTY 0000                     ?_I2C1_MasterIsStopFlagSet 0532  
                                   ?_vfprintf 0543                   ??_I2C1_MasterDisableRestart 0532  
                                __psmallconst 2600                                       __pcinit 3226  
                               ?_I2C1_DO_IDLE 0532                                       __ramtop 2600  
                                     __ptext0 2854                                       __ptext1 33EE  
                                     __ptext2 30F2                                       __ptext3 2C2E  
                                     __ptext4 278A                                       __ptext5 364C  
                                     __ptext6 3522                                       __ptext7 3508  
                                     __ptext8 2E24                                       __ptext9 35E0  
                    _I2C1_MasterEnableRestart 36CA                     __end_of_I2C1_MasterIsNack 3564  
                ?_I2C1_SetAddressNackCallback 0538                                       _loadPCF 303E  
                    __end_of_I2C1_DO_RX_EMPTY 2B14                         _OSCILLATOR_Initialize 347C  
                                 _I2C1ERRbits 0297                                       _sendCMD 331C  
                    __end_of_I2C1_DO_TX_EMPTY 2DAE                      ??_I2C1_MasterIsRxBufFull 0532  
                    ??_PIN_MANAGER_Initialize 0532                                   _I2C1PIEbits 029B  
                    wr1RegCompleteHandler@ptr 053D                                    ?_I2C1_Open 0532  
                                 _I2C1PIRbits 029A                       fp__I2C1_DO_RX_NACK_STOP 0000  
                    ?_I2C1_CallbackReturnStop 053D             __end_of_I2C1_DO_SEND_RESTART_READ 3640  
                        end_of_initialization 3256                    __end_of_I2C1_MasterSendAck 36C4  
                         _I2C1_MasterClearIrq 36A4                                       fputc@fp 0536  
                      ?_rd1RegCompleteHandler 053D                        _I2C1_DO_SEND_ADR_WRITE 35BC  
               __end_of_I2C1_MasterGetCounter 36B2                  __end_of_I2C1_DO_SEND_RESTART 36EC  
                     __end_of_I2C1_MasterOpen 3372                        ?_wr1RegCompleteHandler 053D  
                     __end_of_I2C1_MasterStop 36B8                ??_UART1_SetOverrunErrorHandler 0535  
                     __end_of_I2C1_Initialize 345A                                   _I2C1_Poller 34B4  
                   ?_I2C1_CallbackReturnReset 053D                 __end_of_I2C1_MasterDisableIrq 3508  
                                 _I2C1_Status 0501                     ??_I2C1_MasterIsTxBufEmpty 0532  
                    fp__rd2RegCompleteHandler 0000                             __end_of_vfpfcnvrt 2CB4  
                                     postdec2 04DD                      fp__wr2RegCompleteHandler 0000  
                                     postinc0 04EE                                       postinc1 04E6  
                                     postinc2 04DE                           _I2C1_MasterSendNack 36B8  
         __end_of_I2C1_SetAddressNackCallback 34B4                   _I2C1_SetAddressNackCallback 3498  
                            ?_ADCC_Initialize 0532                                    ??_vfprintf 0549  
                        ?_I2C1_MasterClearIrq 0532                                ??_I2C1_DO_IDLE 0532  
                         _I2C1_MasterResetBus 366A                             UART1_Write@txData 0532  
          __end_of_I2C1_DO_SEND_RESTART_WRITE 36F0                    _I2C1_DO_SEND_RESTART_WRITE 36EC  
             __end_of_rdBlkRegCompleteHandler 3226                      _I2C1_MasterIsNackFlagSet 3590  
               ??_I2C1_SetAddressNackCallback 053D                 __end_of_I2C1_DO_BUS_COLLISION 2F0C  
             I2C1_SetDataCompleteCallback@ptr 053B                I2C1_CallbackReturnReset@funPtr 053D  
                  ??_I2C1_MasterClearNackFlag 0532                          ?_I2C1_MasterSendNack 0532  
                   _I2C1_MasterDisableRestart 36D0                          ?_I2C1_MasterResetBus 0532  
                                 _I2C_LCD_Cmd 3656                    rdBlkRegCompleteHandler@ptr 053D  
                              __end_of_PCF_Wr 35E0                         ??_I2C1_MasterClearIrq 0532  
                            I2C1_DO_TX@dataTx 0543                    ??_I2C1_MasterClearStopFlag 0532  
                                 vfpfcnvrt@ap 0541                                   vfpfcnvrt@fp 053D  
                              _I2C1_DO_RX_ACK 3684                                _I2C1_DO_TX_ACK 368C  
                               __pidataCOMRAM 36F8              __end_of_I2C1_ClearInterruptFlags 3196  
                      ?_OSCILLATOR_Initialize 0532               __end_of_I2C1_CallbackReturnStop 36F8  
               __end_of_I2C1_MasterSetCounter 36A4                                __end_of_printf 3414  
               __end_of_I2C1_MasterSendTxData 369C                   ??_I2C1_MasterIsCountFlagSet 0532  
                         start_initialization 3226                                   ??_I2C1_Open 0532  
                               ?_I2C_LCD_Init 0532                       ??_UART1_SetErrorHandler 0535  
                       ??_I2C1_MasterSendNack 0532                         ??_I2C1_MasterResetBus 0532  
                                 putch@txData 0533                                      ??_PCF_Wr 0549  
                                 __lcd_params 0530                      I2C1_SetBuffer@bufferSize 0534  
                            ?_I2C1_MasterOpen 0532                              ?_I2C1_MasterStop 0532  
                            ?_I2C1_Initialize 0532                                   vfprintf@fmt 0545  
                            ??_PMD_Initialize 0532                        __end_of_I2C1_DO_RX_ACK 368C  
                      __end_of_I2C1_DO_TX_ACK 3694                       ??_I2C1_DO_SEND_ADR_READ 0532  
                                  PCF_Wr@dato 0549                                      ??_printf 054D  
                            I2C1_Open@address 0532                                   __pbssCOMRAM 0501  
                        _I2C1_DO_SEND_RESTART 36E8                                    sendCMD@cmd 0551  
                              ??_I2C_LCD_Init 0553                            _UART1_ErrorHandler 0580  
                 ??_I2C1_DO_SEND_RESTART_READ 0533                         I2C1_DO_TX@retFsmState 0544  
            __end_of_I2C1_MasterIsStopFlagSet 3590                      fp__I2C1_DO_BUS_COLLISION 0000  
                        __end_of_I2C1_DO_IDLE 366A                 I2C1_SetAddressNackCallback@cb 0538  
                                   __pnvBANK5 0580                     _I2C1_MasterIsCountFlagSet 35A6  
                       _rd2RegCompleteHandler 328C                     fp__I2C1_DO_SEND_ADR_WRITE 0000  
                      _I2C1_MasterIsRxBufFull 3564                        _PIN_MANAGER_Initialize 291A  
                       _wr2RegCompleteHandler 32EC                    ??_I2C1_MasterEnableRestart 0532  
                           ?_UART1_Initialize 0532                      rd2RegCompleteHandler@ptr 053D  
        __end_of_UART1_SetFramingErrorHandler 35FC                  _UART1_SetFramingErrorHandler 35EE  
                              _I2C1_MasterFsm 2F78                              fp__I2C1_DO_RESET 0000  
                             ?_I2C1_DO_RX_ACK 0532                               ?_I2C1_DO_TX_ACK 0532  
                          ??_UART1_Initialize 0535                                      _I2C1CON0 0294  
                                    _I2C1CON1 0295                                      _I2C1CON2 0296  
                            _uart1RxLastError 0531                                 ??_UART1_Write 0532  
                     _I2C1_MasterWaitForEvent 3098                              _I2C1_MasterClose 3640  
                              _I2C1_SetBuffer 345A                              _I2C1_MasterWrite 3674  
                                    ?_loadPCF 054A                                   __smallconst 2600  
            _UART1_DefaultOverrunErrorHandler 0000                         ?_I2C1_DO_SEND_RESTART 0532  
                           ?_I2C1_DO_RX_EMPTY 0532                                      ?_sendCMD 0532  
                    _I2C1_ClearInterruptFlags 3144                             ?_I2C1_DO_TX_EMPTY 0532  
                          ??_I2C1_DO_RX_EMPTY 053F              __end_of_I2C1_CallbackReturnReset 36F4  
                          ??_I2C1_DO_TX_EMPTY 053F                       ??_rd1RegCompleteHandler 053F  
                                 _U1ERRIRbits 02B2                       ?_I2C1_DO_SEND_ADR_WRITE 0532  
                   I2C1_MasterSendTxData@data 0532                                    _I2C1SDAPPS 0270  
                                  _I2C1SCLPPS 0271                       ??_wr1RegCompleteHandler 053F  
                            _I2C1_SetCallback 2CB4         UART1_SetErrorHandler@interruptHandler 0532  
                                    _LATFbits 04C3                                    _I2C1_DO_RX 2B14  
                                  _I2C1_DO_TX 266A                                      _PIE7bits 04A5  
                                  _I2C1_Close 339C                                  ?_I2C1_Poller 0532  
                      __end_of_I2C1_MasterFsm 2FE2                          fp__I2C1_DO_BUS_ERROR 0000  
                __end_of_I2C1_MasterGetRxData 36CA                                 _I2C1STAT1bits 0299  
                                    _PIR4bits 04B2                                    _I2C1_Write 2DAE  
                                    _PIR7bits 04B5                    ??_I2C1_MasterIsNackFlagSet 0532  
                          _I2C1_MasterSendAck 36BE                     _I2C1_DO_SEND_RESTART_READ 3634  
                      __end_of_I2C1_SetBuffer 347C                 ?_UART1_SetFramingErrorHandler 0532  
        __end_of_I2C1_SetDataCompleteCallback 34EC                  _I2C1_SetDataCompleteCallback 34D0  
                                   _vfpfcnvrt 2C2E                   ?_I2C1_DO_SEND_RESTART_WRITE 0532  
                         ?_I2C1_MasterSendAck 0532                                    _ADCON0bits 03F3  
                                  _ADCON1bits 03F4                                    _ADCON2bits 03F5  
                                  _ADCON3bits 03F6                      ?_I2C1_DO_RX_NACK_RESTART 0532  
                        fp__I2C1_DO_SEND_STOP 0000                    ?_I2C1_MasterClearCountFlag 0532  
                __end_of_I2C1_DO_ADDRESS_NACK 2F78                           __end_of_UART1_Write 3538  
                    wr2RegCompleteHandler@ptr 053D                __end_of_I2C1_DO_SEND_ADR_WRITE 35D0  
                               _I2C1_DO_RESET 3618                         I2C1_Close@returnValue 0532  
                    ?_rdBlkRegCompleteHandler 053D                           I2C1_SetCallback@idx 0537  
                         I2C1_SetCallback@ptr 0535                                  ?_I2C_LCD_Cmd 0532  
                        ??_I2C1_MasterSendAck 0532                        ?_rd2RegCompleteHandler 053D  
                __end_of_I2C1_MasterOperation 31E2                        ?_wr2RegCompleteHandler 053D  
                                  _ADSTATbits 03F7                      _I2C1_MasterIsStopFlagSet 357A  
                                    __Hrparam 0000                               ?_I2C1_MasterFsm 0532  
                       _I2C1_MasterGetCounter 36AC                                    vfprintf@ap 0547  
                                    __Lrparam 0000                                    vfprintf@fp 0543  
                        __end_of_I2C_LCD_Init 2C2E                     ??_I2C1_MasterWaitForEvent 0532  
                       _I2C1_MasterDisableIrq 34EC                       ??_OSCILLATOR_Initialize 0532  
                             ?_I2C1_SetBuffer 0532                                    ?_vfpfcnvrt 053D  
                              I2C_LCD_Cmd@cmd 0552                        ??_I2C1_DO_SEND_RESTART 0532  
           __end_of_I2C1_MasterClearCountFlag 36E8                                  _I2C1CON0bits 0294  
                                _I2C1CON1bits 0295                                ?_I2C1_DO_RESET 0532  
                                    __ptext10 35EE                                      __ptext11 35FC  
                                    __ptext20 303E                                      __ptext12 3414  
                                    __ptext21 35D0                                      __ptext13 291A  
                                    __ptext30 2F78                                      __ptext22 2DAE  
                                    __ptext14 347C                                      __ptext31 360A  
                                    __ptext23 3498                                      __ptext15 3438  
                                    __ptext40 36EC                                      __ptext32 2E98  
                                    __ptext24 29D4                                      __ptext16 2FE2  
                                    __ptext41 3634                                      __ptext33 2F0C  
                                    __ptext25 3348                                      __ptext17 2BA4  
                                    __ptext50 3538                                      __ptext42 2A76  
                                    __ptext34 3618                                      __ptext26 3674  
                                    __ptext18 3656                                      __ptext51 354E  
                                    __ptext43 2D34                                      __ptext35 367C  
                                    __ptext27 3196                                      __ptext19 331C  
                                    __ptext60 36CA                                      __ptext52 36AC  
                                    __ptext44 2B14                                      __ptext36 3626  
                                    __ptext28 34B4                                      __ptext61 36D0  
                                    __ptext53 36B2                                      __ptext45 266A  
                                    __ptext37 3684                                      __ptext29 3098  
                                    __ptext70 34D0                                      __ptext62 366A  
                                    __ptext54 36B8                                      __ptext46 35BC  
                                    __ptext38 33C6                                      __ptext71 2CB4  
                                    __ptext63 36F0                                      __ptext55 36BE  
                                    __ptext47 3372                                      __ptext39 36E8  
                                    __ptext80 339C                                      __ptext72 345A  
                                    __ptext64 36F4                                      __ptext56 3564  
                                    __ptext48 3660                                      __ptext81 34EC  
                                    __ptext73 3144                                      __ptext65 31E2  
                                    __ptext57 36C4                                      __ptext49 368C  
                                    __ptext82 3640                                      __ptext74 357A  
                                    __ptext66 325C                                      __ptext58 3694  
                                    __ptext83 36A4                                      __ptext75 3590  
                                    __ptext67 328C                                      __ptext59 369C  
                                    __ptext84 0000                                      __ptext76 35A6  
                                    __ptext68 32BC                                      __ptext77 36D6  
                                    __ptext69 32EC                                      __ptext78 36DC  
                                    __ptext79 36E2                         _I2C1_DO_BUS_COLLISION 2E98  
                                  _U1CON0bits 02AB                 __end_of_UART1_SetErrorHandler 360A  
                    _I2C1_CallbackReturnReset 36F0                   fp__I2C1_CallbackReturnReset 0000  
                    ?_I2C1_MasterIsTxBufEmpty 0532                                   ?_I2C1_DO_RX 0532  
                                 ?_I2C1_DO_TX 0532                   __end_of_I2C1_MasterClearIrq 36AC  
                __end_of_I2C1_DO_RX_NACK_STOP 3634                                   ?_I2C1_Close 0532  
                                 ?_I2C1_Write 0547                     _UART1_OverrunErrorHandler 0557  
UART1_SetOverrunErrorHandler@interruptHandler 0532                                      isa$xinst 0000  
                   ?_I2C1_MasterClearNackFlag 0532                                    _LED_STATUS 055E  
             __end_of_I2C1_DO_RX_NACK_RESTART 3684                      I2C1_MasterOperation@read 0545  
                                    _vfprintf 30F2                                     printf@fmt 054B  
               __end_of_I2C1_DO_SEND_ADR_READ 339C                                  _I2C1_DO_IDLE 3660  
                                 _UART1_Write 3522                   __end_of_I2C1_MasterSendNack 36BE  
              ??_UART1_SetFramingErrorHandler 0535                   __end_of_I2C1_MasterResetBus 3674  
               fp__I2C1_DO_SEND_RESTART_WRITE 0000                I2C1_SetAddressNackCallback@ptr 053B  
                       _I2C1_MasterSetCounter 369C                          _I2C1_MasterGetRxData 36C4  
                       _I2C1_MasterSendTxData 3694                     ?_I2C1_MasterClearStopFlag 0532  
                    __end_of_I2C1_MasterClose 364C                       ?_I2C1_MasterIsRxBufFull 0532  
                     ?_PIN_MANAGER_Initialize 0532                      __end_of_I2C1_MasterWrite 367C  
                            ??_I2C1_DO_RX_ACK 0532                              ??_I2C1_DO_TX_ACK 0532  
                      ?_I2C1_MasterGetCounter 0532                       _I2C1_CallbackReturnStop 36F4  
                  fp__I2C1_CallbackReturnStop 0000                          _I2C1_DO_ADDRESS_NACK 2F0C  
                      ?_I2C1_MasterDisableIrq 0532                                      printf@ap 054D  
UART1_SetFramingErrorHandler@interruptHandler 0532                    ??_I2C1_ClearInterruptFlags 0532  
                                 ??_vfpfcnvrt 0543                      __end_of_I2C1_SetCallback 2D34  
                             ??_I2C1_DO_RESET 0532                          _I2C1_MasterOperation 3196  
                       ?_I2C1_MasterGetRxData 0532                        ?_I2C1_DO_BUS_COLLISION 0532  
             __end_of_I2C1_MasterIsTxBufEmpty 354E                __end_of_I2C1_MasterIsRxBufFull 357A  
              __end_of_PIN_MANAGER_Initialize 29D4                             ??_ADCC_Initialize 0532  
               __end_of_rd1RegCompleteHandler 32EC                 __end_of_wr1RegCompleteHandler 328C  
                       ?_I2C1_DO_ADDRESS_NACK 0532  
